(dp0
S'144523_h.mod'
p1
(dp2
S'G_VALS'
p3
(dp4
S'gbar_h'
p5
F1e-05
ssS'GATES'
p6
(dp7
S'm'
p8
I2
ssS'SUFFIX'
p9
S'h'
p10
sS'GMAX_NAME'
p11
g5
sS'STATES'
p12
(lp13
g8
asS'I_VALS'
p14
(dp15
F6.3
cnumpy.core.multiarray
scalar
p16
(cnumpy
dtype
p17
(S'f8'
p18
I0
I1
tp19
Rp20
(I3
S'<'
p21
NNNI-1
I-1
I0
tp22
bS'\xb8W\x0e\x04L\n\x01?'
p23
tp24
Rp25
sI37
g16
(g20
S'\xb8W\x0e\x04L\n\x01?'
p26
tp27
Rp28
ssS'ERROR_FLAGS'
p29
(lp30
ssS'155735_ihpkj.mod'
p31
(dp32
S'G_VALS'
p33
(dp34
S'ghbar_hpkj'
p35
F0.0001
ssS'GATES'
p36
(dp37
S'n'
p38
I1
ssS'SUFFIX'
p39
S'hpkj'
p40
sS'GMAX_NAME'
p41
g35
sS'STATES'
p42
(lp43
g38
asS'I_VALS'
p44
(dp45
F6.3
g16
(g20
S'Tx\x19\xc1\x85\xa85?'
p46
tp47
Rp48
sI37
g16
(g20
S'Tx\x19\xc1\x85\xa85?'
p49
tp50
Rp51
ssS'ERROR_FLAGS'
p52
(lp53
ssS'19591_h_chan.mod'
p54
(dp55
S'G_VALS'
p56
(dp57
S'gbar_h_chan'
p58
F0.0001648
ssS'GATES'
p59
(dp60
S'm'
p61
I1
ssS'SUFFIX'
p62
S'h_chan'
p63
sS'GMAX_NAME'
p64
g58
sS'STATES'
p65
(lp66
g61
asS'I_VALS'
p67
(dp68
F6.3
g16
(g20
S'\xa5\x1f\x97\xceS\x85B?'
p69
tp70
Rp71
sI37
g16
(g20
S'\xa5\x1f\x97\xceS\x85B?'
p72
tp73
Rp74
ssS'ERROR_FLAGS'
p75
(lp76
ssS'181967_h.mod'
p77
(dp78
S'G_VALS'
p79
(dp80
S'ghdbar_h'
p81
F0.0001
ssS'GATES'
p82
(dp83
S'l'
p84
I1
ssS'SUFFIX'
p85
S'h'
p86
sS'GMAX_NAME'
p87
g81
sS'STATES'
p88
(lp89
g84
asS'I_VALS'
p90
(dp91
F6.3
g16
(g20
S'F\xf9\xc3*\xcc\xe35?'
p92
tp93
Rp94
sI37
g16
(g20
S'\xd0\x91\x86\x9c\xb2\xe35?'
p95
tp96
Rp97
ssS'ERROR_FLAGS'
p98
(lp99
ssS'113732_h.mod'
p100
(dp101
S'G_VALS'
p102
(dp103
S'gbar_h'
p104
F1.0
ssS'GATES'
p105
(dp106
S'n'
p107
I1
ssS'SUFFIX'
p108
S'h'
p109
sS'GMAX_NAME'
p110
g104
sS'STATES'
p111
(lp112
g107
asS'I_VALS'
p113
(dp114
F6.3
g16
(g20
S'\x14\x8c\xa8\xc7\x9d"\x12\xbd'
p115
tp116
Rp117
sI37
g16
(g20
S'\x14\x8c\xa8\xc7\x9d"\x12\xbd'
p118
tp119
Rp120
ssS'ERROR_FLAGS'
p121
(lp122
ssS'106551_h.mod'
p123
(dp124
S'G_VALS'
p125
(dp126
S'ghdbar_hd'
p127
F0.0001
ssS'GATES'
p128
(dp129
S'l'
p130
I1
ssS'SUFFIX'
p131
S'hd'
p132
sS'GMAX_NAME'
p133
g127
sS'STATES'
p134
(lp135
g130
asS'I_VALS'
p136
(dp137
F6.3
g16
(g20
S'F\xf9\xc3*\xcc\xe35?'
p138
tp139
Rp140
sI37
g16
(g20
S'\xd0\x91\x86\x9c\xb2\xe35?'
p141
tp142
Rp143
ssS'ERROR_FLAGS'
p144
(lp145
ssS'82364_h.mod'
p146
(dp147
S'G_VALS'
p148
(dp149
S'ghdbar_hd'
p150
F0.0001
ssS'GATES'
p151
(dp152
S'l'
p153
I1
ssS'SUFFIX'
p154
S'hd'
p155
sS'GMAX_NAME'
p156
g150
sS'STATES'
p157
(lp158
g153
asS'I_VALS'
p159
(dp160
F6.3
g16
(g20
S'F\xf9\xc3*\xcc\xe35?'
p161
tp162
Rp163
sI37
g16
(g20
S'\xd0\x91\x86\x9c\xb2\xe35?'
p164
tp165
Rp166
ssS'ERROR_FLAGS'
p167
(lp168
ssS'114355_M_h.mod'
p169
(dp170
S'G_VALS'
p171
(dp172
S'ghdbar_hd_M'
p173
F0.0001
ssS'GATES'
p174
(dp175
S'l'
p176
I1
ssS'SUFFIX'
p177
S'hd_M'
p178
sS'GMAX_NAME'
p179
g173
sS'STATES'
p180
(lp181
g176
asS'I_VALS'
p182
(dp183
F6.3
g16
(g20
S'\xce3s\xe8#h5?'
p184
tp185
Rp186
sI37
g16
(g20
S':MT\xdf"h5?'
p187
tp188
Rp189
ssS'ERROR_FLAGS'
p190
(lp191
ssS'184180_Ih.mod'
p192
(dp193
S'G_VALS'
p194
(dp195
S'gbar_Ih'
p196
F1e-05
ssS'GATES'
p197
(dp198
S'm'
p199
I1
ssS'SUFFIX'
p200
S'Ih'
p201
sS'GMAX_NAME'
p202
g196
sS'STATES'
p203
(lp204
g199
asS'I_VALS'
p205
(dp206
F6.3
g16
(g20
S'\xa1+\xdfv)\x0b\x01?'
p207
tp208
Rp209
sI37
g16
(g20
S'\xa1+\xdfv)\x0b\x01?'
p210
tp211
Rp212
ssS'ERROR_FLAGS'
p213
(lp214
ssS'143100_HCN.mod'
p215
(dp216
S'G_VALS'
p217
(dp218
S'gmax_HCN'
p219
F0.001
ssS'GATES'
p220
(dp221
S'm'
p222
I1
ssS'SUFFIX'
p223
S'HCN'
p224
sS'GMAX_NAME'
p225
g219
sS'STATES'
p226
(lp227
g222
asS'I_VALS'
p228
(dp229
F6.3
g16
(g20
S'\xb0\xaa\xdf\xd4\xa5\xa0l?'
p230
tp231
Rp232
sI37
g16
(g20
S'\xb0\xaa\xdf\xd4\xa5\xa0l?'
p233
tp234
Rp235
ssS'ERROR_FLAGS'
p236
(lp237
ssS'148644_h.mod'
p238
(dp239
S'G_VALS'
p240
(dp241
S'ghdbar_hd'
p242
F0.0001
ssS'GATES'
p243
(dp244
S'l'
p245
I1
ssS'SUFFIX'
p246
S'hd'
p247
sS'GMAX_NAME'
p248
g242
sS'STATES'
p249
(lp250
g245
asS'I_VALS'
p251
(dp252
F6.3
g16
(g20
S'F\xf9\xc3*\xcc\xe35?'
p253
tp254
Rp255
sI37
g16
(g20
S'\xd0\x91\x86\x9c\xb2\xe35?'
p256
tp257
Rp258
ssS'ERROR_FLAGS'
p259
(lp260
ssS'150288_h.mod'
p261
(dp262
S'G_VALS'
p263
(dp264
S'ghdbar_hd'
p265
F0.0001
ssS'GATES'
p266
(dp267
S'l'
p268
I1
ssS'SUFFIX'
p269
S'hd'
p270
sS'GMAX_NAME'
p271
g265
sS'STATES'
p272
(lp273
g268
asS'I_VALS'
p274
(dp275
F6.3
g16
(g20
S'F\xf9\xc3*\xcc\xe35?'
p276
tp277
Rp278
sI37
g16
(g20
S'\xd0\x91\x86\x9c\xb2\xe35?'
p279
tp280
Rp281
ssS'ERROR_FLAGS'
p282
(lp283
ssS'8284_hyperde2.mod'
p284
(dp285
S'ERROR_FLAGS'
p286
(lp287
I7
assS'155568_hyperde3_icgIH2.mod'
p288
(dp289
S'ERROR_FLAGS'
p290
(lp291
I7
assS'153280_ch_HCNp.mod'
p292
(dp293
S'G_VALS'
p294
(dp295
S'gmax_ch_HCNp'
p296
F0.0001
ssS'GATES'
p297
(dp298
S'l'
p299
I1
ssS'SUFFIX'
p300
S'ch_HCNp'
p301
sS'GMAX_NAME'
p302
g296
sS'STATES'
p303
(lp304
g299
asS'I_VALS'
p305
(dp306
F6.3
g16
(g20
S'y\x14H\xa7\xd9p5?'
p307
tp308
Rp309
sI37
g16
(g20
S'hI\x13\x96\xd8p5?'
p310
tp311
Rp312
ssS'ERROR_FLAGS'
p313
(lp314
ssS'9769_h.mod'
p315
(dp316
S'G_VALS'
p317
(dp318
S'ghdbar_hd'
p319
F0.0001
ssS'GATES'
p320
(dp321
S'l'
p322
I1
ssS'SUFFIX'
p323
S'hd'
p324
sS'GMAX_NAME'
p325
g319
sS'STATES'
p326
(lp327
g322
asS'I_VALS'
p328
(dp329
F6.3
g16
(g20
S'\xce3s\xe8#h5?'
p330
tp331
Rp332
sI37
g16
(g20
S':MT\xdf"h5?'
p333
tp334
Rp335
ssS'ERROR_FLAGS'
p336
(lp337
ssS'151126_Ih.mod'
p338
(dp339
S'G_VALS'
p340
(dp341
S'gkhbar_Ih'
p342
F0.001385
ssS'GATES'
p343
(dp344
S'r'
p345
I1
ssS'SUFFIX'
p346
S'Ih'
p347
sS'GMAX_NAME'
p348
g342
sS'STATES'
p349
(lp350
g345
asS'I_VALS'
p351
(dp352
F6.3
g16
(g20
S'\xd2\xd1@d\xef\xf1\x80?'
p353
tp354
Rp355
sI37
g16
(g20
S'\xd2\xd1@d\xef\xf1\x80?'
p356
tp357
Rp358
ssS'ERROR_FLAGS'
p359
(lp360
ssS'51781_hyperde3_icgIH2.mod'
p361
(dp362
S'ERROR_FLAGS'
p363
(lp364
I7
assS'124063_Bip_ih.mod'
p365
(dp366
S'G_VALS'
p367
(dp368
S'gbar_ih'
p369
F0.0311
ssS'GATES'
p370
(dp371
S'n'
p372
I1
ssS'SUFFIX'
p373
S'ih'
p374
sS'GMAX_NAME'
p375
g369
sS'STATES'
p376
(lp377
g372
asS'I_VALS'
p378
(dp379
F6.3
g16
(g20
S'v]\x8d\x84\xf5)\x83\xbf'
p380
tp381
Rp382
sI37
g16
(g20
S'v]\x8d\x84\xf5)\x83\xbf'
p383
tp384
Rp385
ssS'ERROR_FLAGS'
p386
(lp387
ssS'136803_ar.mod'
p388
(dp389
S'G_VALS'
p390
(dp391
S'gbar_ar'
p392
F1.0
ssS'GATES'
p393
(dp394
S'm'
p395
I1
ssS'SUFFIX'
p396
S'ar'
p397
sS'GMAX_NAME'
p398
g392
sS'STATES'
p399
(lp400
g395
asS'I_VALS'
p401
(dp402
F6.3
g16
(g20
S'\xf0\x07\x93\x88S\x07J\xab'
p403
tp404
Rp405
sI37
g16
(g20
S'\xf0\x07\x93\x88S\x07J\xab'
p406
tp407
Rp408
ssS'ERROR_FLAGS'
p409
(lp410
ssS'149739_hpg.mod'
p411
(dp412
S'G_VALS'
p413
(dp414
S'ghbar_hpg'
p415
F5e-05
ssS'GATES'
p416
(dp417
S'l'
p418
I1
ssS'SUFFIX'
p419
S'hpg'
p420
sS'GMAX_NAME'
p421
g415
sS'STATES'
p422
(lp423
g418
asS'I_VALS'
p424
(dp425
F6.3
g16
(g20
S"\xcf\x17'\xa4a\xbf%?"
p426
tp427
Rp428
sI37
g16
(g20
S'\xb9n\x95\x83`\xbf%?'
p429
tp430
Rp431
ssS'ERROR_FLAGS'
p432
(lp433
ssS'147539_h.mod'
p434
(dp435
S'G_VALS'
p436
(dp437
S'ghdbar_hd'
p438
F0.0001
ssS'GATES'
p439
(dp440
S'l'
p441
I1
ssS'SUFFIX'
p442
S'hd'
p443
sS'GMAX_NAME'
p444
g438
sS'STATES'
p445
(lp446
g441
asS'I_VALS'
p447
(dp448
F6.3
g16
(g20
S'F\xf9\xc3*\xcc\xe35?'
p449
tp450
Rp451
sI37
g16
(g20
S'\xd0\x91\x86\x9c\xb2\xe35?'
p452
tp453
Rp454
ssS'ERROR_FLAGS'
p455
(lp456
ssS'144482_ar.mod'
p457
(dp458
S'G_VALS'
p459
(dp460
S'gbar_ar'
p461
F1.0
ssS'GATES'
p462
(dp463
S'm'
p464
I1
ssS'SUFFIX'
p465
S'ar'
p466
sS'GMAX_NAME'
p467
g461
sS'STATES'
p468
(lp469
g464
asS'I_VALS'
p470
(dp471
F6.3
g16
(g20
S'\xf0\x07\x93\x88S\x07J\xab'
p472
tp473
Rp474
sI37
g16
(g20
S'\xf0\x07\x93\x88S\x07J\xab'
p475
tp476
Rp477
ssS'ERROR_FLAGS'
p478
(lp479
ssS'122329_hcn12_gp.mod'
p480
(dp481
S'ERROR_FLAGS'
p482
(lp483
I4
assS'150024_TNC.mod'
p484
(dp485
S'ERROR_FLAGS'
p486
(lp487
I3
assS'144976_h.mod'
p488
(dp489
S'G_VALS'
p490
(dp491
S'ghdbar_hd'
p492
F0.0001
ssS'GATES'
p493
(dp494
S'l'
p495
I1
ssS'SUFFIX'
p496
S'hd'
p497
sS'GMAX_NAME'
p498
g492
sS'STATES'
p499
(lp500
g495
asS'I_VALS'
p501
(dp502
F6.3
g16
(g20
S'F\xf9\xc3*\xcc\xe35?'
p503
tp504
Rp505
sI37
g16
(g20
S'\xd0\x91\x86\x9c\xb2\xe35?'
p506
tp507
Rp508
ssS'ERROR_FLAGS'
p509
(lp510
ssS'144490_h.mod'
p511
(dp512
S'G_VALS'
p513
(dp514
S'gbar_h'
p515
F1.0
sS'gmax_h'
p516
F0.0
ssS'GATES'
p517
(dp518
S'n'
p519
I1
ssS'SUFFIX'
p520
S'h'
p521
sS'GMAX_NAME'
p522
g515
sS'STATES'
p523
(lp524
g519
asS'I_VALS'
p525
(dp526
F6.3
g16
(g20
S'\x1b\xf8\x9ba\x9d%\x12\xbd'
p527
tp528
Rp529
sI37
g16
(g20
S'\x1b\xf8\x9ba\x9d%\x12\xbd'
p530
tp531
Rp532
ssS'ERROR_FLAGS'
p533
(lp534
ssS'19746_L98NCh.mod'
p535
(dp536
S'G_VALS'
p537
(dp538
S'ghbar_L98NCh'
p539
F7.8e-05
ssS'GATES'
p540
(dp541
S'l'
p542
I1
ssS'SUFFIX'
p543
S'L98NCh'
p544
sS'GMAX_NAME'
p545
g539
sS'STATES'
p546
(lp547
g542
asS'I_VALS'
p548
(dp549
F6.3
g16
(g20
S'\xbbT\xdbE\x0b\xd60?'
p550
tp551
Rp552
sI37
g16
(g20
S'\xbbT\xdbE\x0b\xd60?'
p553
tp554
Rp555
ssS'ERROR_FLAGS'
p556
(lp557
ssS'170030_h.mod'
p558
(dp559
S'G_VALS'
p560
(dp561
S'ghdbar_hd'
p562
F0.0001
ssS'GATES'
p563
(dp564
S'l'
p565
I1
ssS'SUFFIX'
p566
S'hd'
p567
sS'GMAX_NAME'
p568
g562
sS'STATES'
p569
(lp570
g565
asS'I_VALS'
p571
(dp572
F6.3
g16
(g20
S'F\xf9\xc3*\xcc\xe35?'
p573
tp574
Rp575
sI37
g16
(g20
S'\xd0\x91\x86\x9c\xb2\xe35?'
p576
tp577
Rp578
ssS'ERROR_FLAGS'
p579
(lp580
ssS'149174_hyperde3_icgIH2.mod'
p581
(dp582
S'ERROR_FLAGS'
p583
(lp584
I7
assS'124063_Rod_ih.mod'
p585
(dp586
S'G_VALS'
p587
(dp588
S'ghbar_h'
p589
F2.5
ssS'GATES'
p590
(dp591
S'nh'
p592
I1
ssS'SUFFIX'
p593
S'h'
p594
sS'GMAX_NAME'
p595
g589
sS'STATES'
p596
(lp597
g592
asS'I_VALS'
p598
(dp599
F6.3
g16
(g20
S';\n\\\x98\xdd\xb6\x85?'
p600
tp601
Rp602
sI37
g16
(g20
S';\n\\\x98\xdd\xb6\x85?'
p603
tp604
Rp605
ssS'ERROR_FLAGS'
p606
(lp607
ssS'102288_Ih.mod'
p608
(dp609
S'G_VALS'
p610
(dp611
S'gkhbar_Ih'
p612
F0.001385
ssS'GATES'
p613
(dp614
S'r'
p615
I1
ssS'SUFFIX'
p616
S'Ih'
p617
sS'GMAX_NAME'
p618
g612
sS'STATES'
p619
(lp620
g615
asS'I_VALS'
p621
(dp622
F6.3
g16
(g20
S'q+(6\xef\xf1\x80?'
p623
tp624
Rp625
sI37
g16
(g20
S'q+(6\xef\xf1\x80?'
p626
tp627
Rp628
ssS'ERROR_FLAGS'
p629
(lp630
ssS'155602_hyperde3_icgIH2.mod'
p631
(dp632
S'ERROR_FLAGS'
p633
(lp634
I7
assS'124513_hyperde3_icgIH2.mod'
p635
(dp636
S'ERROR_FLAGS'
p637
(lp638
I7
assS'155568_hyperde3.mod'
p639
(dp640
S'ERROR_FLAGS'
p641
(lp642
I7
assS'151126_h.mod'
p643
(dp644
S'G_VALS'
p645
(dp646
S'ghdbar_h'
p647
F0.0001
ssS'GATES'
p648
(dp649
S'l'
p650
I1
ssS'SUFFIX'
p651
S'h'
p652
sS'GMAX_NAME'
p653
g647
sS'STATES'
p654
(lp655
g650
asS'I_VALS'
p656
(dp657
F6.3
g16
(g20
S'F\xf9\xc3*\xcc\xe35?'
p658
tp659
Rp660
sI37
g16
(g20
S'\xd0\x91\x86\x9c\xb2\xe35?'
p661
tp662
Rp663
ssS'ERROR_FLAGS'
p664
(lp665
ssS'135898_h.mod'
p666
(dp667
S'G_VALS'
p668
(dp669
S'ghdbar_hd'
p670
F0.0001
ssS'GATES'
p671
(dp672
S'l'
p673
I1
ssS'SUFFIX'
p674
S'hd'
p675
sS'GMAX_NAME'
p676
g670
sS'STATES'
p677
(lp678
g673
asS'I_VALS'
p679
(dp680
F6.3
g16
(g20
S'F\xf9\xc3*\xcc\xe35?'
p681
tp682
Rp683
sI37
g16
(g20
S'\xd0\x91\x86\x9c\xb2\xe35?'
p684
tp685
Rp686
ssS'ERROR_FLAGS'
p687
(lp688
ssS'184310_Ih.mod'
p689
(dp690
S'G_VALS'
p691
(dp692
S'gbar_Ih'
p693
F1e-05
ssS'GATES'
p694
(dp695
S'm'
p696
I1
ssS'SUFFIX'
p697
S'Ih'
p698
sS'GMAX_NAME'
p699
g693
sS'STATES'
p700
(lp701
g696
asS'I_VALS'
p702
(dp703
F6.3
g16
(g20
S'\xa1+\xdfv)\x0b\x01?'
p704
tp705
Rp706
sI37
g16
(g20
S'\xa1+\xdfv)\x0b\x01?'
p707
tp708
Rp709
ssS'ERROR_FLAGS'
p710
(lp711
ssS'184316_Ih.mod'
p712
(dp713
S'G_VALS'
p714
(dp715
S'gbar_Ih'
p716
F1e-05
ssS'GATES'
p717
(dp718
S'm'
p719
I1
ssS'SUFFIX'
p720
S'Ih'
p721
sS'GMAX_NAME'
p722
g716
sS'STATES'
p723
(lp724
g719
asS'I_VALS'
p725
(dp726
F6.3
g16
(g20
S'\xa1+\xdfv)\x0b\x01?'
p727
tp728
Rp729
sI37
g16
(g20
S'\xa1+\xdfv)\x0b\x01?'
p730
tp731
Rp732
ssS'ERROR_FLAGS'
p733
(lp734
ssS'121259_h2.mod'
p735
(dp736
S'G_VALS'
p737
(dp738
S'ghdbar_hd2'
p739
F0.0001
ssS'GATES'
p740
(dp741
S'l'
p742
I1
ssS'SUFFIX'
p743
S'hd2'
p744
sS'GMAX_NAME'
p745
g739
sS'STATES'
p746
(lp747
g742
asS'I_VALS'
p748
(dp749
F6.3
g16
(g20
S'\xf3\xf7\x03-\xae_5?'
p750
tp751
Rp752
sI37
g16
(g20
S'\xa6\xb8,g6i5?'
p753
tp754
Rp755
ssS'ERROR_FLAGS'
p756
(lp757
ssS'151282_HCN1.mod'
p758
(dp759
S'ERROR_FLAGS'
p760
(lp761
I4
assS'181967_h2.mod'
p762
(dp763
S'G_VALS'
p764
(dp765
S'ghdbar_hd2'
p766
F0.0001
ssS'GATES'
p767
(dp768
S'l'
p769
I1
ssS'SUFFIX'
p770
S'hd2'
p771
sS'GMAX_NAME'
p772
g766
sS'STATES'
p773
(lp774
g769
asS'I_VALS'
p775
(dp776
F6.3
g16
(g20
S'\xb7\xe9\xb2X\xe1\xb06?'
p777
tp778
Rp779
sI37
g16
(g20
S'\x87\x131\x05j\xb06?'
p780
tp781
Rp782
ssS'ERROR_FLAGS'
p783
(lp784
ssS'64296_Ih.mod'
p785
(dp786
S'G_VALS'
p787
(dp788
S'gkhbar_Ih'
p789
F1.0
ssS'GATES'
p790
(dp791
S'r'
p792
I1
ssS'SUFFIX'
p793
S'Ih'
p794
sS'GMAX_NAME'
p795
g789
sS'STATES'
p796
(lp797
g792
asS'I_VALS'
p798
(dp799
F6.3
g16
(g20
S',S\xbf\x17\x97\x01\x16\xb4'
p800
tp801
Rp802
sI37
g16
(g20
S',S\xbf\x17\x97\x01\x16\xb4'
p803
tp804
Rp805
ssS'ERROR_FLAGS'
p806
(lp807
ssS'146565_h.mod'
p808
(dp809
S'G_VALS'
p810
(dp811
S'ghdbar_hd'
p812
F0.0001
ssS'GATES'
p813
(dp814
S'l'
p815
I1
ssS'SUFFIX'
p816
S'hd'
p817
sS'GMAX_NAME'
p818
g812
sS'STATES'
p819
(lp820
g815
asS'I_VALS'
p821
(dp822
F6.3
g16
(g20
S'F\xf9\xc3*\xcc\xe35?'
p823
tp824
Rp825
sI37
g16
(g20
S'\xd0\x91\x86\x9c\xb2\xe35?'
p826
tp827
Rp828
ssS'ERROR_FLAGS'
p829
(lp830
ssS'137259_h.mod'
p831
(dp832
S'G_VALS'
p833
(dp834
S'ghdbar_hd'
p835
F0.0001
ssS'GATES'
p836
(dp837
S'l'
p838
I1
ssS'SUFFIX'
p839
S'hd'
p840
sS'GMAX_NAME'
p841
g835
sS'STATES'
p842
(lp843
g838
asS'I_VALS'
p844
(dp845
F6.3
g16
(g20
S'\xb7\xe9\xb2X\xe1\xb06?'
p846
tp847
Rp848
sI37
g16
(g20
S'\x87\x131\x05j\xb06?'
p849
tp850
Rp851
ssS'ERROR_FLAGS'
p852
(lp853
ssS'149174_hyperde3.mod'
p854
(dp855
S'ERROR_FLAGS'
p856
(lp857
I7
assS'135903_iholmw.mod'
p858
(dp859
S'ERROR_FLAGS'
p860
(lp861
I1
assS'139656_Golgi_hcn1.mod'
p862
(dp863
S'ERROR_FLAGS'
p864
(lp865
I4
assS'124513_hyperde3.mod'
p866
(dp867
S'ERROR_FLAGS'
p868
(lp869
I7
assS'125152_h.mod'
p870
(dp871
S'G_VALS'
p872
(dp873
S'ghdbar_hd'
p874
F0.0001
ssS'GATES'
p875
(dp876
S'l'
p877
I1
ssS'SUFFIX'
p878
S'hd'
p879
sS'GMAX_NAME'
p880
g874
sS'STATES'
p881
(lp882
g877
asS'I_VALS'
p883
(dp884
F6.3
g16
(g20
S'\xce3s\xe8#h5?'
p885
tp886
Rp887
sI37
g16
(g20
S':MT\xdf"h5?'
p888
tp889
Rp890
ssS'ERROR_FLAGS'
p891
(lp892
ssS'144089_h.mod'
p893
(dp894
S'G_VALS'
p895
(dp896
S'gbar_h'
p897
F1.0
ssS'GATES'
p898
(dp899
S'n'
p900
I1
ssS'SUFFIX'
p901
S'h'
p902
sS'GMAX_NAME'
p903
g897
sS'STATES'
p904
(lp905
g900
asS'I_VALS'
p906
(dp907
F6.3
g16
(g20
S"u\xf5\xf7'\xd0\xaa\x8c\xbb"
p908
tp909
Rp910
sI37
g16
(g20
S"u\xf5\xf7'\xd0\xaa\x8c\xbb"
p911
tp912
Rp913
ssS'ERROR_FLAGS'
p914
(lp915
ssS'146376_h.mod'
p916
(dp917
S'G_VALS'
p918
(dp919
S'ghdbar_hd'
p920
F0.0001
ssS'GATES'
p921
(dp922
S'l'
p923
I1
ssS'SUFFIX'
p924
S'hd'
p925
sS'GMAX_NAME'
p926
g920
sS'STATES'
p927
(lp928
g923
asS'I_VALS'
p929
(dp930
F6.3
g16
(g20
S'F\xf9\xc3*\xcc\xe35?'
p931
tp932
Rp933
sI37
g16
(g20
S'\xd0\x91\x86\x9c\xb2\xe35?'
p934
tp935
Rp936
ssS'ERROR_FLAGS'
p937
(lp938
ssS'184325_Ih.mod'
p939
(dp940
S'G_VALS'
p941
(dp942
S'gbar_Ih'
p943
F1e-05
ssS'GATES'
p944
(dp945
S'm'
p946
I1
ssS'SUFFIX'
p947
S'Ih'
p948
sS'GMAX_NAME'
p949
g943
sS'STATES'
p950
(lp951
g946
asS'I_VALS'
p952
(dp953
F6.3
g16
(g20
S'\xa1+\xdfv)\x0b\x01?'
p954
tp955
Rp956
sI37
g16
(g20
S'\xa1+\xdfv)\x0b\x01?'
p957
tp958
Rp959
ssS'ERROR_FLAGS'
p960
(lp961
ssS'184182_Ih.mod'
p962
(dp963
S'G_VALS'
p964
(dp965
S'gbar_Ih'
p966
F1e-05
ssS'GATES'
p967
(dp968
S'm'
p969
I1
ssS'SUFFIX'
p970
S'Ih'
p971
sS'GMAX_NAME'
p972
g966
sS'STATES'
p973
(lp974
g969
asS'I_VALS'
p975
(dp976
F6.3
g16
(g20
S'\xa1+\xdfv)\x0b\x01?'
p977
tp978
Rp979
sI37
g16
(g20
S'\xa1+\xdfv)\x0b\x01?'
p980
tp981
Rp982
ssS'ERROR_FLAGS'
p983
(lp984
ssS'97874_h.mod'
p985
(dp986
S'G_VALS'
p987
(dp988
S'ghdbar_hd'
p989
F0.0001
ssS'GATES'
p990
(dp991
S'l'
p992
I1
ssS'SUFFIX'
p993
S'hd'
p994
sS'GMAX_NAME'
p995
g989
sS'STATES'
p996
(lp997
g992
asS'I_VALS'
p998
(dp999
F6.3
g16
(g20
S'F\xf9\xc3*\xcc\xe35?'
p1000
tp1001
Rp1002
sI37
g16
(g20
S'\xd0\x91\x86\x9c\xb2\xe35?'
p1003
tp1004
Rp1005
ssS'ERROR_FLAGS'
p1006
(lp1007
ssS'48332_ihpkj.mod'
p1008
(dp1009
S'G_VALS'
p1010
(dp1011
S'ghbar_hpkj'
p1012
F0.0001
ssS'GATES'
p1013
(dp1014
S'n'
p1015
I1
ssS'SUFFIX'
p1016
S'hpkj'
p1017
sS'GMAX_NAME'
p1018
g1012
sS'STATES'
p1019
(lp1020
g1015
asS'I_VALS'
p1021
(dp1022
F6.3
g16
(g20
S'Tx\x19\xc1\x85\xa85?'
p1023
tp1024
Rp1025
sI37
g16
(g20
S'Tx\x19\xc1\x85\xa85?'
p1026
tp1027
Rp1028
ssS'ERROR_FLAGS'
p1029
(lp1030
ssS'144589_h.mod'
p1031
(dp1032
S'G_VALS'
p1033
(dp1034
S'ghdbar_hd'
p1035
F0.0001
ssS'GATES'
p1036
(dp1037
S'l'
p1038
I1
ssS'SUFFIX'
p1039
S'hd'
p1040
sS'GMAX_NAME'
p1041
g1035
sS'STATES'
p1042
(lp1043
g1038
asS'I_VALS'
p1044
(dp1045
F6.3
g16
(g20
S'F\xf9\xc3*\xcc\xe35?'
p1046
tp1047
Rp1048
sI37
g16
(g20
S'\xd0\x91\x86\x9c\xb2\xe35?'
p1049
tp1050
Rp1051
ssS'ERROR_FLAGS'
p1052
(lp1053
ssS'37857_hcno.mod'
p1054
(dp1055
S'ERROR_FLAGS'
p1056
(lp1057
I4
assS'184184_Ih.mod'
p1058
(dp1059
S'G_VALS'
p1060
(dp1061
S'gbar_Ih'
p1062
F1e-05
ssS'GATES'
p1063
(dp1064
S'm'
p1065
I1
ssS'SUFFIX'
p1066
S'Ih'
p1067
sS'GMAX_NAME'
p1068
g1062
sS'STATES'
p1069
(lp1070
g1065
asS'I_VALS'
p1071
(dp1072
F6.3
g16
(g20
S'\xa1+\xdfv)\x0b\x01?'
p1073
tp1074
Rp1075
sI37
g16
(g20
S'\xa1+\xdfv)\x0b\x01?'
p1076
tp1077
Rp1078
ssS'ERROR_FLAGS'
p1079
(lp1080
ssS'180370_ghchan.mod'
p1081
(dp1082
S'G_VALS'
p1083
(dp1084
S'ghbar_gh'
p1085
F0.001
ssS'GATES'
p1086
(dp1087
S'n'
p1088
I1
ssS'SUFFIX'
p1089
S'gh'
p1090
sS'GMAX_NAME'
p1091
g1085
sS'STATES'
p1092
(lp1093
g1088
asS'I_VALS'
p1094
(dp1095
F6.3
g16
(g20
S'Q\x01c\xa2,\x8ds?'
p1096
tp1097
Rp1098
sI37
g16
(g20
S'Q\x01c\xa2,\x8ds?'
p1099
tp1100
Rp1101
ssS'ERROR_FLAGS'
p1102
(lp1103
ssS'123927_h.mod'
p1104
(dp1105
S'G_VALS'
p1106
(dp1107
S'ghdbar_hd'
p1108
F0.0001
ssS'GATES'
p1109
(dp1110
S'l'
p1111
I1
ssS'SUFFIX'
p1112
S'hd'
p1113
sS'GMAX_NAME'
p1114
g1108
sS'STATES'
p1115
(lp1116
g1111
asS'I_VALS'
p1117
(dp1118
F6.3
g16
(g20
S'\xce3s\xe8#h5?'
p1119
tp1120
Rp1121
sI37
g16
(g20
S':MT\xdf"h5?'
p1122
tp1123
Rp1124
ssS'ERROR_FLAGS'
p1125
(lp1126
ssS'184152_Ih.mod'
p1127
(dp1128
S'G_VALS'
p1129
(dp1130
S'gbar_Ih'
p1131
F1e-05
ssS'GATES'
p1132
(dp1133
S'm'
p1134
I1
ssS'SUFFIX'
p1135
S'Ih'
p1136
sS'GMAX_NAME'
p1137
g1131
sS'STATES'
p1138
(lp1139
g1134
asS'I_VALS'
p1140
(dp1141
F6.3
g16
(g20
S'\xa1+\xdfv)\x0b\x01?'
p1142
tp1143
Rp1144
sI37
g16
(g20
S'\xa1+\xdfv)\x0b\x01?'
p1145
tp1146
Rp1147
ssS'ERROR_FLAGS'
p1148
(lp1149
ssS'64229_hyperde3.mod'
p1150
(dp1151
S'ERROR_FLAGS'
p1152
(lp1153
I7
assS'64195_ih_stochastic.mod'
p1154
(dp1155
S'ERROR_FLAGS'
p1156
(lp1157
I4
assS'151460_Ih.mod'
p1158
(dp1159
S'G_VALS'
p1160
(dp1161
S'gmaxQ10_Ih'
p1162
F2.0
sS'gmax_k_Ih'
p1163
F0.0
ssS'GATES'
p1164
(dp1165
S'f'
p1166
I1
ssS'SUFFIX'
p1167
S'Ih'
p1168
sS'GMAX_NAME'
p1169
g1162
sS'STATES'
p1170
(lp1171
g1166
asS'I_VALS'
p1172
(dp1173
F6.3
g16
(g20
S'|\\F\x1ea\x109?'
p1174
tp1175
Rp1176
sI37
g16
(g20
S'\x00\xe5a\x9eFwq?'
p1177
tp1178
Rp1179
ssS'ERROR_FLAGS'
p1180
(lp1181
ssS'135903_CA1ih.mod'
p1182
(dp1183
S'ERROR_FLAGS'
p1184
(lp1185
I5
assS'184350_Ih.mod'
p1186
(dp1187
S'G_VALS'
p1188
(dp1189
S'gbar_Ih'
p1190
F1e-05
ssS'GATES'
p1191
(dp1192
S'm'
p1193
I1
ssS'SUFFIX'
p1194
S'Ih'
p1195
sS'GMAX_NAME'
p1196
g1190
sS'STATES'
p1197
(lp1198
g1193
asS'I_VALS'
p1199
(dp1200
F6.3
g16
(g20
S'\xa1+\xdfv)\x0b\x01?'
p1201
tp1202
Rp1203
sI37
g16
(g20
S'\xa1+\xdfv)\x0b\x01?'
p1204
tp1205
Rp1206
ssS'ERROR_FLAGS'
p1207
(lp1208
ssS'181967_Ih.mod'
p1209
(dp1210
S'G_VALS'
p1211
(dp1212
S'gkhbar_Ih'
p1213
F0.001385
ssS'GATES'
p1214
(dp1215
S'r'
p1216
I1
ssS'SUFFIX'
p1217
S'Ih'
p1218
sS'GMAX_NAME'
p1219
g1213
sS'STATES'
p1220
(lp1221
g1216
asS'I_VALS'
p1222
(dp1223
F6.3
g16
(g20
S'\xd2\xd1@d\xef\xf1\x80?'
p1224
tp1225
Rp1226
sI37
g16
(g20
S'\xd2\xd1@d\xef\xf1\x80?'
p1227
tp1228
Rp1229
ssS'ERROR_FLAGS'
p1230
(lp1231
ssS'118098_hca3.mod'
p1232
(dp1233
S'ERROR_FLAGS'
p1234
(lp1235
I4
assS'8284_hyperso_icgIH2.mod'
p1236
(dp1237
S'ERROR_FLAGS'
p1238
(lp1239
I7
assS'28316_Ih.mod'
p1240
(dp1241
S'G_VALS'
p1242
(dp1243
S'gkhbar_Ih'
p1244
F0.001385
ssS'GATES'
p1245
(dp1246
S'r'
p1247
I1
ssS'SUFFIX'
p1248
S'Ih'
p1249
sS'GMAX_NAME'
p1250
g1244
sS'STATES'
p1251
(lp1252
g1247
asS'I_VALS'
p1253
(dp1254
F6.3
g16
(g20
S'\xd2\xd1@d\xef\xf1\x80?'
p1255
tp1256
Rp1257
sI37
g16
(g20
S'\xd2\xd1@d\xef\xf1\x80?'
p1258
tp1259
Rp1260
ssS'ERROR_FLAGS'
p1261
(lp1262
ssS'150024_h.mod'
p1263
(dp1264
S'G_VALS'
p1265
(dp1266
S'gbar_h'
p1267
F1e-05
ssS'GATES'
p1268
(dp1269
S'm'
p1270
I2
ssS'SUFFIX'
p1271
S'h'
p1272
sS'GMAX_NAME'
p1273
g1267
sS'STATES'
p1274
(lp1275
g1270
asS'I_VALS'
p1276
(dp1277
F6.3
g16
(g20
S'\xb8W\x0e\x04L\n\x01?'
p1278
tp1279
Rp1280
sI37
g16
(g20
S'\xb8W\x0e\x04L\n\x01?'
p1281
tp1282
Rp1283
ssS'ERROR_FLAGS'
p1284
(lp1285
ssS'184331_Ih.mod'
p1286
(dp1287
S'G_VALS'
p1288
(dp1289
S'gbar_Ih'
p1290
F1e-05
ssS'GATES'
p1291
(dp1292
S'm'
p1293
I1
ssS'SUFFIX'
p1294
S'Ih'
p1295
sS'GMAX_NAME'
p1296
g1290
sS'STATES'
p1297
(lp1298
g1293
asS'I_VALS'
p1299
(dp1300
F6.3
g16
(g20
S'\xa1+\xdfv)\x0b\x01?'
p1301
tp1302
Rp1303
sI37
g16
(g20
S'\xa1+\xdfv)\x0b\x01?'
p1304
tp1305
Rp1306
ssS'ERROR_FLAGS'
p1307
(lp1308
ssS'87454_ih.mod'
p1309
(dp1310
S'G_VALS'
p1311
(dp1312
S'ghbar_ih'
p1313
F0.00318
ssS'GATES'
p1314
(dp1315
S'r'
p1316
I1
ssS'SUFFIX'
p1317
S'ih'
p1318
sS'GMAX_NAME'
p1319
g1313
sS'STATES'
p1320
(lp1321
g1316
asS'I_VALS'
p1322
(dp1323
F6.3
g16
(g20
S'\xc3\x86\x87\xf5\xe5\x99\x90\xbf'
p1324
tp1325
Rp1326
sI37
g16
(g20
S'\xed9\x91@3\x04\x91\xbf'
p1327
tp1328
Rp1329
ssS'ERROR_FLAGS'
p1330
(lp1331
ssS'155057_h.mod'
p1332
(dp1333
S'G_VALS'
p1334
(dp1335
S'gbar_h'
p1336
F1.0
ssS'GATES'
p1337
(dp1338
S'n'
p1339
I1
ssS'SUFFIX'
p1340
S'h'
p1341
sS'GMAX_NAME'
p1342
g1336
sS'STATES'
p1343
(lp1344
g1339
asS'I_VALS'
p1345
(dp1346
F6.3
g16
(g20
S"u\xf5\xf7'\xd0\xaa\x8c\xbb"
p1347
tp1348
Rp1349
sI37
g16
(g20
S"u\xf5\xf7'\xd0\xaa\x8c\xbb"
p1350
tp1351
Rp1352
ssS'ERROR_FLAGS'
p1353
(lp1354
ssS'157339_h.mod'
p1355
(dp1356
S'G_VALS'
p1357
(dp1358
S'ghdbar_hd'
p1359
F0.0001
ssS'GATES'
p1360
(dp1361
S'l'
p1362
I1
ssS'SUFFIX'
p1363
S'hd'
p1364
sS'GMAX_NAME'
p1365
g1359
sS'STATES'
p1366
(lp1367
g1362
asS'I_VALS'
p1368
(dp1369
F6.3
g16
(g20
S'F\xf9\xc3*\xcc\xe35?'
p1370
tp1371
Rp1372
sI37
g16
(g20
S'\xd0\x91\x86\x9c\xb2\xe35?'
p1373
tp1374
Rp1375
ssS'ERROR_FLAGS'
p1376
(lp1377
ssS'97917_hyperde3_icgIH2.mod'
p1378
(dp1379
S'ERROR_FLAGS'
p1380
(lp1381
I7
assS'184196_Ih.mod'
p1382
(dp1383
S'G_VALS'
p1384
(dp1385
S'gbar_Ih'
p1386
F1e-05
ssS'GATES'
p1387
(dp1388
S'm'
p1389
I1
ssS'SUFFIX'
p1390
S'Ih'
p1391
sS'GMAX_NAME'
p1392
g1386
sS'STATES'
p1393
(lp1394
g1389
asS'I_VALS'
p1395
(dp1396
F6.3
g16
(g20
S'\xa1+\xdfv)\x0b\x01?'
p1397
tp1398
Rp1399
sI37
g16
(g20
S'\xa1+\xdfv)\x0b\x01?'
p1400
tp1401
Rp1402
ssS'ERROR_FLAGS'
p1403
(lp1404
ssS'127021_Golgi_hcn1.mod'
p1405
(dp1406
S'ERROR_FLAGS'
p1407
(lp1408
I4
assS'135903_iholmkop.mod'
p1409
(dp1410
S'ERROR_FLAGS'
p1411
(lp1412
I1
assS'8284_hyperde3_icgIH2.mod'
p1413
(dp1414
S'ERROR_FLAGS'
p1415
(lp1416
I7
assS'151282_iholmw.mod'
p1417
(dp1418
S'ERROR_FLAGS'
p1419
(lp1420
I1
assS'135902_iholmw.mod'
p1421
(dp1422
S'ERROR_FLAGS'
p1423
(lp1424
I1
assS'149737_ih_stochastic.mod'
p1425
(dp1426
S'ERROR_FLAGS'
p1427
(lp1428
I4
assS'64195_ih.mod'
p1429
(dp1430
S'G_VALS'
p1431
(dp1432
S'ghdbar_ih'
p1433
F0.00015
ssS'GATES'
p1434
(dp1435
S'qq'
p1436
I1
ssS'SUFFIX'
p1437
S'ih'
p1438
sS'GMAX_NAME'
p1439
g1433
sS'STATES'
p1440
(lp1441
g1436
asS'I_VALS'
p1442
(dp1443
F6.3
g16
(g20
S'\xab*\xc7\xba\xc7\x08@?'
p1444
tp1445
Rp1446
sI37
g16
(g20
S'\xab*\xc7\xba\xc7\x08@?'
p1447
tp1448
Rp1449
ssS'ERROR_FLAGS'
p1450
(lp1451
ssS'147578_h.mod'
p1452
(dp1453
S'G_VALS'
p1454
(dp1455
S'ghdbar_hd'
p1456
F0.0001
ssS'GATES'
p1457
(dp1458
S'l'
p1459
I1
ssS'SUFFIX'
p1460
S'hd'
p1461
sS'GMAX_NAME'
p1462
g1456
sS'STATES'
p1463
(lp1464
g1459
asS'I_VALS'
p1465
(dp1466
F6.3
g16
(g20
S'F\xf9\xc3*\xcc\xe35?'
p1467
tp1468
Rp1469
sI37
g16
(g20
S'\xd0\x91\x86\x9c\xb2\xe35?'
p1470
tp1471
Rp1472
ssS'ERROR_FLAGS'
p1473
(lp1474
ssS'144541_h.mod'
p1475
(dp1476
S'G_VALS'
p1477
(dp1478
S'ghdbar_hd'
p1479
F0.0001
ssS'GATES'
p1480
(dp1481
S'l'
p1482
I1
ssS'SUFFIX'
p1483
S'hd'
p1484
sS'GMAX_NAME'
p1485
g1479
sS'STATES'
p1486
(lp1487
g1482
asS'I_VALS'
p1488
(dp1489
F6.3
g16
(g20
S'\xfe8\x01\xea#h5?'
p1490
tp1491
Rp1492
sI37
g16
(g20
S'\xca\x81uz#h5?'
p1493
tp1494
Rp1495
ssS'ERROR_FLAGS'
p1496
(lp1497
ssS'184145_Ih.mod'
p1498
(dp1499
S'G_VALS'
p1500
(dp1501
S'gbar_Ih'
p1502
F1e-05
ssS'GATES'
p1503
(dp1504
S'm'
p1505
I1
ssS'SUFFIX'
p1506
S'Ih'
p1507
sS'GMAX_NAME'
p1508
g1502
sS'STATES'
p1509
(lp1510
g1505
asS'I_VALS'
p1511
(dp1512
F6.3
g16
(g20
S'\xa1+\xdfv)\x0b\x01?'
p1513
tp1514
Rp1515
sI37
g16
(g20
S'\xa1+\xdfv)\x0b\x01?'
p1516
tp1517
Rp1518
ssS'ERROR_FLAGS'
p1519
(lp1520
ssS'155601_hyperde3_icgIH2.mod'
p1521
(dp1522
S'ERROR_FLAGS'
p1523
(lp1524
I7
assS'97917_hyperde3.mod'
p1525
(dp1526
S'ERROR_FLAGS'
p1527
(lp1528
I7
assS'184348_Ih.mod'
p1529
(dp1530
S'G_VALS'
p1531
(dp1532
S'gbar_Ih'
p1533
F1e-05
ssS'GATES'
p1534
(dp1535
S'm'
p1536
I1
ssS'SUFFIX'
p1537
S'Ih'
p1538
sS'GMAX_NAME'
p1539
g1533
sS'STATES'
p1540
(lp1541
g1536
asS'I_VALS'
p1542
(dp1543
F6.3
g16
(g20
S'\xa1+\xdfv)\x0b\x01?'
p1544
tp1545
Rp1546
sI37
g16
(g20
S'\xa1+\xdfv)\x0b\x01?'
p1547
tp1548
Rp1549
ssS'ERROR_FLAGS'
p1550
(lp1551
ssS'127305_h.mod'
p1552
(dp1553
S'G_VALS'
p1554
(dp1555
S'ghdbar_hd'
p1556
F0.0001
ssS'GATES'
p1557
(dp1558
S'l'
p1559
I1
ssS'SUFFIX'
p1560
S'hd'
p1561
sS'GMAX_NAME'
p1562
g1556
sS'STATES'
p1563
(lp1564
g1559
asS'I_VALS'
p1565
(dp1566
F6.3
g16
(g20
S'F\xf9\xc3*\xcc\xe35?'
p1567
tp1568
Rp1569
sI37
g16
(g20
S'\xd0\x91\x86\x9c\xb2\xe35?'
p1570
tp1571
Rp1572
ssS'ERROR_FLAGS'
p1573
(lp1574
ssS'112685_Golgi_hcn2.mod'
p1575
(dp1576
S'ERROR_FLAGS'
p1577
(lp1578
I4
assS'184323_Ih.mod'
p1579
(dp1580
S'G_VALS'
p1581
(dp1582
S'gbar_Ih'
p1583
F1e-05
ssS'GATES'
p1584
(dp1585
S'm'
p1586
I1
ssS'SUFFIX'
p1587
S'Ih'
p1588
sS'GMAX_NAME'
p1589
g1583
sS'STATES'
p1590
(lp1591
g1586
asS'I_VALS'
p1592
(dp1593
F6.3
g16
(g20
S'\xa1+\xdfv)\x0b\x01?'
p1594
tp1595
Rp1596
sI37
g16
(g20
S'\xa1+\xdfv)\x0b\x01?'
p1597
tp1598
Rp1599
ssS'ERROR_FLAGS'
p1600
(lp1601
ssS'147538_h.mod'
p1602
(dp1603
S'G_VALS'
p1604
(dp1605
S'ghdbar_hd'
p1606
F0.0001
ssS'GATES'
p1607
(dp1608
S'l'
p1609
I1
ssS'SUFFIX'
p1610
S'hd'
p1611
sS'GMAX_NAME'
p1612
g1606
sS'STATES'
p1613
(lp1614
g1609
asS'I_VALS'
p1615
(dp1616
F6.3
g16
(g20
S'F\xf9\xc3*\xcc\xe35?'
p1617
tp1618
Rp1619
sI37
g16
(g20
S'\xd0\x91\x86\x9c\xb2\xe35?'
p1620
tp1621
Rp1622
ssS'ERROR_FLAGS'
p1623
(lp1624
ssS'116862_ntIh.mod'
p1625
(dp1626
S'G_VALS'
p1627
(dp1628
S'ghbar_iar'
p1629
F0.0008
ssS'GATES'
p1630
(dp1631
S'h'
p1632
I1
ssS'SUFFIX'
p1633
S'iar'
p1634
sS'GMAX_NAME'
p1635
g1629
sS'STATES'
p1636
(lp1637
g1632
asS'I_VALS'
p1638
(dp1639
F6.3
g16
(g20
S'\xbd\xe8\xfa\xf6W\x88u?'
p1640
tp1641
Rp1642
sI37
g16
(g20
S'2\xe9\xad\x9a\x81\x85u?'
p1643
tp1644
Rp1645
ssS'ERROR_FLAGS'
p1646
(lp1647
ssS'20212_iq.mod'
p1648
(dp1649
S'G_VALS'
p1650
(dp1651
S'gqbar_q'
p1652
F0.003
ssS'GATES'
p1653
(dp1654
S'q'
p1655
I1
ssS'SUFFIX'
p1656
g1655
sS'GMAX_NAME'
p1657
g1652
sS'STATES'
p1658
(lp1659
g1655
asS'I_VALS'
p1660
(dp1661
F6.3
g16
(g20
S'\xe5\xad\x0f4;a\x84?'
p1662
tp1663
Rp1664
sI37
g16
(g20
S'\xfb\xab\xaf\xbfR\xb5\x84?'
p1665
tp1666
Rp1667
ssS'ERROR_FLAGS'
p1668
(lp1669
ssS'184168_Ih.mod'
p1670
(dp1671
S'G_VALS'
p1672
(dp1673
S'gbar_Ih'
p1674
F1e-05
ssS'GATES'
p1675
(dp1676
S'm'
p1677
I1
ssS'SUFFIX'
p1678
S'Ih'
p1679
sS'GMAX_NAME'
p1680
g1674
sS'STATES'
p1681
(lp1682
g1677
asS'I_VALS'
p1683
(dp1684
F6.3
g16
(g20
S'\xa1+\xdfv)\x0b\x01?'
p1685
tp1686
Rp1687
sI37
g16
(g20
S'\xa1+\xdfv)\x0b\x01?'
p1688
tp1689
Rp1690
ssS'ERROR_FLAGS'
p1691
(lp1692
ssS'139657_sjg_ih.mod'
p1693
(dp1694
S'G_VALS'
p1695
(dp1696
S'ghbar_sjg_ih'
p1697
F0.00318
ssS'GATES'
p1698
(dp1699
S'u'
p1700
I1
ssS'SUFFIX'
p1701
S'sjg_ih'
p1702
sS'GMAX_NAME'
p1703
g1697
sS'STATES'
p1704
(lp1705
g1700
asS'I_VALS'
p1706
(dp1707
F6.3
g16
(g20
S's\xe1w-4G\x8d?'
p1708
tp1709
Rp1710
sI37
g16
(g20
S'\xa0\xf1)\xe7lE\x8d?'
p1711
tp1712
Rp1713
ssS'ERROR_FLAGS'
p1714
(lp1715
ssS'156780_Ih.mod'
p1716
(dp1717
S'G_VALS'
p1718
(dp1719
S'gIhbar_Ih'
p1720
F1e-05
ssS'GATES'
p1721
(dp1722
S'm'
p1723
I1
ssS'SUFFIX'
p1724
S'Ih'
p1725
sS'GMAX_NAME'
p1726
g1720
sS'STATES'
p1727
(lp1728
g1723
asS'I_VALS'
p1729
(dp1730
F6.3
g16
(g20
S'\xa1+\xdfv)\x0b\x01?'
p1731
tp1732
Rp1733
sI37
g16
(g20
S'\xa1+\xdfv)\x0b\x01?'
p1734
tp1735
Rp1736
ssS'ERROR_FLAGS'
p1737
(lp1738
ssS'3665_hpg.mod'
p1739
(dp1740
S'G_VALS'
p1741
(dp1742
S'ghbar_hpg'
p1743
F5e-05
ssS'GATES'
p1744
(dp1745
S'l'
p1746
I1
ssS'SUFFIX'
p1747
S'hpg'
p1748
sS'GMAX_NAME'
p1749
g1743
sS'STATES'
p1750
(lp1751
g1746
asS'I_VALS'
p1752
(dp1753
F6.3
g16
(g20
S"\xcf\x17'\xa4a\xbf%?"
p1754
tp1755
Rp1756
sI37
g16
(g20
S'\xb9n\x95\x83`\xbf%?'
p1757
tp1758
Rp1759
ssS'ERROR_FLAGS'
p1760
(lp1761
ssS'139421_ihpyrkop.mod'
p1762
(dp1763
S'ERROR_FLAGS'
p1764
(lp1765
I1
assS'150239_hcn.mod'
p1766
(dp1767
S'ERROR_FLAGS'
p1768
(lp1769
I7
assS'126814_h.mod'
p1770
(dp1771
S'G_VALS'
p1772
(dp1773
S'ghdbar_hd'
p1774
F0.0001
ssS'GATES'
p1775
(dp1776
S'l'
p1777
I1
ssS'SUFFIX'
p1778
S'hd'
p1779
sS'GMAX_NAME'
p1780
g1774
sS'STATES'
p1781
(lp1782
g1777
asS'I_VALS'
p1783
(dp1784
F6.3
g16
(g20
S'\xb7\xe9\xb2X\xe1\xb06?'
p1785
tp1786
Rp1787
sI37
g16
(g20
S'\x87\x131\x05j\xb06?'
p1788
tp1789
Rp1790
ssS'ERROR_FLAGS'
p1791
(lp1792
ssS'37857_ih.mod'
p1793
(dp1794
S'G_VALS'
p1795
(dp1796
S'ghbar_ih'
p1797
F0.00318
ssS'GATES'
p1798
(dp1799
S'r'
p1800
I1
ssS'SUFFIX'
p1801
S'ih'
p1802
sS'GMAX_NAME'
p1803
g1797
sS'STATES'
p1804
(lp1805
g1800
asS'I_VALS'
p1806
(dp1807
F6.3
g16
(g20
S'DQ\x07\xeb9\xe8n?'
p1808
tp1809
Rp1810
sI37
g16
(g20
S'\xe7B\x1by\xa9\xe6n?'
p1811
tp1812
Rp1813
ssS'ERROR_FLAGS'
p1814
(lp1815
ssS'140828_ar.mod'
p1816
(dp1817
S'ERROR_FLAGS'
p1818
(lp1819
I5
assS'149100_Ih.mod'
p1820
(dp1821
S'G_VALS'
p1822
(dp1823
S'gIhbar_Ih'
p1824
F1e-05
ssS'GATES'
p1825
(dp1826
S'm'
p1827
I1
ssS'SUFFIX'
p1828
S'Ih'
p1829
sS'GMAX_NAME'
p1830
g1824
sS'STATES'
p1831
(lp1832
g1827
asS'I_VALS'
p1833
(dp1834
F6.3
g16
(g20
S'\xa1+\xdfv)\x0b\x01?'
p1835
tp1836
Rp1837
sI37
g16
(g20
S'\xa1+\xdfv)\x0b\x01?'
p1838
tp1839
Rp1840
ssS'ERROR_FLAGS'
p1841
(lp1842
ssS'182134_iholmkop.mod'
p1843
(dp1844
S'ERROR_FLAGS'
p1845
(lp1846
I1
assS'180373_Ih.mod'
p1847
(dp1848
S'G_VALS'
p1849
(dp1850
S'gIhbar_Ih'
p1851
F1e-05
ssS'GATES'
p1852
(dp1853
S'm'
p1854
I1
ssS'SUFFIX'
p1855
S'Ih'
p1856
sS'GMAX_NAME'
p1857
g1851
sS'STATES'
p1858
(lp1859
g1854
asS'I_VALS'
p1860
(dp1861
F6.3
g16
(g20
S'\xa1+\xdfv)\x0b\x01?'
p1862
tp1863
Rp1864
sI37
g16
(g20
S'\xa1+\xdfv)\x0b\x01?'
p1865
tp1866
Rp1867
ssS'ERROR_FLAGS'
p1868
(lp1869
ssS'186977_h_chann.mod'
p1870
(dp1871
S'G_VALS'
p1872
(dp1873
S'ghdbar_htc'
p1874
F1.25e-05
ssS'GATES'
p1875
(dp1876
S'l'
p1877
I1
ssS'SUFFIX'
p1878
S'htc'
p1879
sS'GMAX_NAME'
p1880
g1874
sS'STATES'
p1881
(lp1882
g1877
asS'I_VALS'
p1883
(dp1884
F6.3
g16
(g20
S"\xf5\x9d\xa6'\xccZ\x05?"
p1885
tp1886
Rp1887
sI37
g16
(g20
S'\xca\xadj\xf1\xcbZ\x05?'
p1888
tp1889
Rp1890
ssS'ERROR_FLAGS'
p1891
(lp1892
ssS'105385_hcn12_gp.mod'
p1893
(dp1894
S'ERROR_FLAGS'
p1895
(lp1896
I4
assS'53869_ih_VCN2003.mod'
p1897
(dp1898
S'G_VALS'
p1899
(dp1900
S'ghbar_ih_VCN2003'
p1901
F0.002
ssS'GATES'
p1902
(dp1903
S'r'
p1904
I1
ssS'SUFFIX'
p1905
S'ih_VCN2003'
p1906
sS'GMAX_NAME'
p1907
g1901
sS'STATES'
p1908
(lp1909
g1904
asS'I_VALS'
p1910
(dp1911
F6.3
g16
(g20
S'q9M\x9e\x1c\xcf\xb5?'
p1912
tp1913
Rp1914
sI37
g16
(g20
S'T[\xd6\\G\x8f\xb4?'
p1915
tp1916
Rp1917
ssS'ERROR_FLAGS'
p1918
(lp1919
ssS'64228_h.mod'
p1920
(dp1921
S'G_VALS'
p1922
(dp1923
S'ghbar_h'
p1924
F1.41
ssS'GATES'
p1925
(dp1926
S'nh'
p1927
I1
ssS'SUFFIX'
p1928
S'h'
p1929
sS'GMAX_NAME'
p1930
g1924
sS'STATES'
p1931
(lp1932
g1927
asS'I_VALS'
p1933
(dp1934
F6.3
g16
(g20
S'\xc5\x8b\x86\xa7\x8a\x8cu?'
p1935
tp1936
Rp1937
sI37
g16
(g20
S'\xc5\x8b\x86\xa7\x8a\x8cu?'
p1938
tp1939
Rp1940
ssS'ERROR_FLAGS'
p1941
(lp1942
ssS'114685_HCN.mod'
p1943
(dp1944
S'ERROR_FLAGS'
p1945
(lp1946
I5
assS'113732_ar.mod'
p1947
(dp1948
S'G_VALS'
p1949
(dp1950
S'gbar_ar'
p1951
F1.0
ssS'GATES'
p1952
(dp1953
S'm'
p1954
I1
ssS'SUFFIX'
p1955
S'ar'
p1956
sS'GMAX_NAME'
p1957
g1951
sS'STATES'
p1958
(lp1959
g1954
asS'I_VALS'
p1960
(dp1961
F6.3
g16
(g20
S'\xf0\x07\x93\x88S\x07J\xab'
p1962
tp1963
Rp1964
sI37
g16
(g20
S'\xf0\x07\x93\x88S\x07J\xab'
p1965
tp1966
Rp1967
ssS'ERROR_FLAGS'
p1968
(lp1969
ssS'123815_Ih.mod'
p1970
(dp1971
S'G_VALS'
p1972
(dp1973
S'gkhbar_Ih'
p1974
F0.001385
ssS'GATES'
p1975
(dp1976
S'r'
p1977
I1
ssS'SUFFIX'
p1978
S'Ih'
p1979
sS'GMAX_NAME'
p1980
g1974
sS'STATES'
p1981
(lp1982
g1977
asS'I_VALS'
p1983
(dp1984
F6.3
g16
(g20
S'\xd2\xd1@d\xef\xf1\x80?'
p1985
tp1986
Rp1987
sI37
g16
(g20
S'\xd2\xd1@d\xef\xf1\x80?'
p1988
tp1989
Rp1990
ssS'ERROR_FLAGS'
p1991
(lp1992
ssS'3332_hcno.mod'
p1993
(dp1994
S'ERROR_FLAGS'
p1995
(lp1996
I4
assS'185858_ihlts.mod'
p1997
(dp1998
S'ERROR_FLAGS'
p1999
(lp2000
I1
assS'20212_h_v2.mod'
p2001
(dp2002
S'G_VALS'
p2003
(dp2004
S'gbar_h'
p2005
F0.1
ssS'GATES'
p2006
(dp2007
S'n'
p2008
I1
ssS'SUFFIX'
p2009
S'h'
p2010
sS'GMAX_NAME'
p2011
g2005
sS'STATES'
p2012
(lp2013
g2008
asS'I_VALS'
p2014
(dp2015
F6.3
g16
(g20
S'\xf4{\xc3|\xf9\x8a5?'
p2016
tp2017
Rp2018
sI37
g16
(g20
S'\xf4{\xc3|\xf9\x8a5?'
p2019
tp2020
Rp2021
ssS'ERROR_FLAGS'
p2022
(lp2023
ssS'124043_h.mod'
p2024
(dp2025
S'G_VALS'
p2026
(dp2027
S'ghdbar_hd'
p2028
F0.0001
ssS'GATES'
p2029
(dp2030
S'l'
p2031
I1
ssS'SUFFIX'
p2032
S'hd'
p2033
sS'GMAX_NAME'
p2034
g2028
sS'STATES'
p2035
(lp2036
g2031
asS'I_VALS'
p2037
(dp2038
F6.3
g16
(g20
S'F\xf9\xc3*\xcc\xe35?'
p2039
tp2040
Rp2041
sI37
g16
(g20
S'\xd0\x91\x86\x9c\xb2\xe35?'
p2042
tp2043
Rp2044
ssS'ERROR_FLAGS'
p2045
(lp2046
ssS'146509_h.mod'
p2047
(dp2048
S'G_VALS'
p2049
(dp2050
S'ghdbar_hd'
p2051
F0.0001
ssS'GATES'
p2052
(dp2053
S'l'
p2054
I1
ssS'SUFFIX'
p2055
S'hd'
p2056
sS'GMAX_NAME'
p2057
g2051
sS'STATES'
p2058
(lp2059
g2054
asS'I_VALS'
p2060
(dp2061
F6.3
g16
(g20
S'F\xf9\xc3*\xcc\xe35?'
p2062
tp2063
Rp2064
sI37
g16
(g20
S'\xd0\x91\x86\x9c\xb2\xe35?'
p2065
tp2066
Rp2067
ssS'ERROR_FLAGS'
p2068
(lp2069
ssS'19176_hcn2.mod'
p2070
(dp2071
S'ERROR_FLAGS'
p2072
(lp2073
I4
assS'144520_if.mod'
p2074
(dp2075
S'ERROR_FLAGS'
p2076
(lp2077
I1
assS'140249_iar.mod'
p2078
(dp2079
S'G_VALS'
p2080
(dp2081
S'ghbar_iar'
p2082
F1.1e-05
ssS'GATES'
p2083
(dp2084
S'h'
p2085
I1
ssS'SUFFIX'
p2086
S'iar'
p2087
sS'GMAX_NAME'
p2088
g2082
sS'STATES'
p2089
(lp2090
g2085
asS'I_VALS'
p2091
(dp2092
F6.3
g16
(g20
S'\xd6;\x96\xf3h\xc3\x02?'
p2093
tp2094
Rp2095
sI37
g16
(g20
S'\xd6;\x96\xf3h\xc3\x02?'
p2096
tp2097
Rp2098
ssS'ERROR_FLAGS'
p2099
(lp2100
ssS'184178_Ih.mod'
p2101
(dp2102
S'G_VALS'
p2103
(dp2104
S'gbar_Ih'
p2105
F1e-05
ssS'GATES'
p2106
(dp2107
S'm'
p2108
I1
ssS'SUFFIX'
p2109
S'Ih'
p2110
sS'GMAX_NAME'
p2111
g2105
sS'STATES'
p2112
(lp2113
g2108
asS'I_VALS'
p2114
(dp2115
F6.3
g16
(g20
S'\xa1+\xdfv)\x0b\x01?'
p2116
tp2117
Rp2118
sI37
g16
(g20
S'\xa1+\xdfv)\x0b\x01?'
p2119
tp2120
Rp2121
ssS'ERROR_FLAGS'
p2122
(lp2123
ssS'148094_h.mod'
p2124
(dp2125
S'G_VALS'
p2126
(dp2127
S'ghdbar_hd'
p2128
F0.0001
ssS'GATES'
p2129
(dp2130
S'l'
p2131
I1
ssS'SUFFIX'
p2132
S'hd'
p2133
sS'GMAX_NAME'
p2134
g2128
sS'STATES'
p2135
(lp2136
g2131
asS'I_VALS'
p2137
(dp2138
F6.3
g16
(g20
S'\xb7\xe9\xb2X\xe1\xb06?'
p2139
tp2140
Rp2141
sI37
g16
(g20
S'\x87\x131\x05j\xb06?'
p2142
tp2143
Rp2144
ssS'ERROR_FLAGS'
p2145
(lp2146
ssS'184319_Ih.mod'
p2147
(dp2148
S'G_VALS'
p2149
(dp2150
S'gbar_Ih'
p2151
F1e-05
ssS'GATES'
p2152
(dp2153
S'm'
p2154
I1
ssS'SUFFIX'
p2155
S'Ih'
p2156
sS'GMAX_NAME'
p2157
g2151
sS'STATES'
p2158
(lp2159
g2154
asS'I_VALS'
p2160
(dp2161
F6.3
g16
(g20
S'\xa1+\xdfv)\x0b\x01?'
p2162
tp2163
Rp2164
sI37
g16
(g20
S'\xa1+\xdfv)\x0b\x01?'
p2165
tp2166
Rp2167
ssS'ERROR_FLAGS'
p2168
(lp2169
ssS'45539_ar.mod'
p2170
(dp2171
S'G_VALS'
p2172
(dp2173
S'gbar_ar'
p2174
F1.0
ssS'GATES'
p2175
(dp2176
S'm'
p2177
I1
ssS'SUFFIX'
p2178
S'ar'
p2179
sS'GMAX_NAME'
p2180
g2174
sS'STATES'
p2181
(lp2182
g2177
asS'I_VALS'
p2183
(dp2184
F6.3
g16
(g20
S'\xf0\x07\x93\x88S\x07J\xab'
p2185
tp2186
Rp2187
sI37
g16
(g20
S'\xf0\x07\x93\x88S\x07J\xab'
p2188
tp2189
Rp2190
ssS'ERROR_FLAGS'
p2191
(lp2192
ssS'119283_h.mod'
p2193
(dp2194
S'G_VALS'
p2195
(dp2196
S'ghdbar_hd'
p2197
F0.0001
ssS'GATES'
p2198
(dp2199
S'l'
p2200
I1
ssS'SUFFIX'
p2201
S'hd'
p2202
sS'GMAX_NAME'
p2203
g2197
sS'STATES'
p2204
(lp2205
g2200
asS'I_VALS'
p2206
(dp2207
F6.3
g16
(g20
S'F\xf9\xc3*\xcc\xe35?'
p2208
tp2209
Rp2210
sI37
g16
(g20
S'\xd0\x91\x86\x9c\xb2\xe35?'
p2211
tp2212
Rp2213
ssS'ERROR_FLAGS'
p2214
(lp2215
ssS'20756_ar.mod'
p2216
(dp2217
S'G_VALS'
p2218
(dp2219
S'gbar_ar'
p2220
F1.0
ssS'GATES'
p2221
(dp2222
S'm'
p2223
I1
ssS'SUFFIX'
p2224
S'ar'
p2225
sS'GMAX_NAME'
p2226
g2220
sS'STATES'
p2227
(lp2228
g2223
asS'I_VALS'
p2229
(dp2230
F6.3
g16
(g20
S'\xf0\x07\x93\x88S\x07J\xab'
p2231
tp2232
Rp2233
sI37
g16
(g20
S'\xf0\x07\x93\x88S\x07J\xab'
p2234
tp2235
Rp2236
ssS'ERROR_FLAGS'
p2237
(lp2238
ssS'182134_ca1ih.mod'
p2239
(dp2240
S'ERROR_FLAGS'
p2241
(lp2242
I5
assS'184297_Ih.mod'
p2243
(dp2244
S'G_VALS'
p2245
(dp2246
S'gbar_Ih'
p2247
F1e-05
ssS'GATES'
p2248
(dp2249
S'm'
p2250
I1
ssS'SUFFIX'
p2251
S'Ih'
p2252
sS'GMAX_NAME'
p2253
g2247
sS'STATES'
p2254
(lp2255
g2250
asS'I_VALS'
p2256
(dp2257
F6.3
g16
(g20
S'\xa1+\xdfv)\x0b\x01?'
p2258
tp2259
Rp2260
sI37
g16
(g20
S'\xa1+\xdfv)\x0b\x01?'
p2261
tp2262
Rp2263
ssS'ERROR_FLAGS'
p2264
(lp2265
ssS'182134_iholmw.mod'
p2266
(dp2267
S'ERROR_FLAGS'
p2268
(lp2269
I1
assS'97860_hcn_siegelbaum.mod'
p2270
(dp2271
S'ERROR_FLAGS'
p2272
(lp2273
I4
assS'8284_hyperde2_icgIH2.mod'
p2274
(dp2275
S'ERROR_FLAGS'
p2276
(lp2277
I7
assS'183949_ghchan.mod'
p2278
(dp2279
S'G_VALS'
p2280
(dp2281
S'ghbar_gh'
p2282
F0.001
ssS'GATES'
p2283
(dp2284
S'n'
p2285
I1
ssS'SUFFIX'
p2286
S'gh'
p2287
sS'GMAX_NAME'
p2288
g2282
sS'STATES'
p2289
(lp2290
g2285
asS'I_VALS'
p2291
(dp2292
F6.3
g16
(g20
S'Q\x01c\xa2,\x8ds?'
p2293
tp2294
Rp2295
sI37
g16
(g20
S'Q\x01c\xa2,\x8ds?'
p2296
tp2297
Rp2298
ssS'ERROR_FLAGS'
p2299
(lp2300
ssS'124063_Cone_ih.mod'
p2301
(dp2302
S'G_VALS'
p2303
(dp2304
S'ghbar_h_cone'
p2305
F3.5
ssS'GATES'
p2306
(dp2307
S'nh'
p2308
I1
ssS'SUFFIX'
p2309
S'h_cone'
p2310
sS'GMAX_NAME'
p2311
g2305
sS'STATES'
p2312
(lp2313
g2308
asS'I_VALS'
p2314
(dp2315
F6.3
g16
(g20
S'\x02Hl\xfa(x9\xbf'
p2316
tp2317
Rp2318
sI37
g16
(g20
S'\x02Hl\xfa(x9\xbf'
p2319
tp2320
Rp2321
ssS'ERROR_FLAGS'
p2322
(lp2323
ssS'114355_G_h.mod'
p2324
(dp2325
S'G_VALS'
p2326
(dp2327
S'ghdbar_hd_G'
p2328
F0.0001
ssS'GATES'
p2329
(dp2330
S'l'
p2331
I1
ssS'SUFFIX'
p2332
S'hd_G'
p2333
sS'GMAX_NAME'
p2334
g2328
sS'STATES'
p2335
(lp2336
g2331
asS'I_VALS'
p2337
(dp2338
F6.3
g16
(g20
S'F\xf9\xc3*\xcc\xe35?'
p2339
tp2340
Rp2341
sI37
g16
(g20
S'\xd0\x91\x86\x9c\xb2\xe35?'
p2342
tp2343
Rp2344
ssS'ERROR_FLAGS'
p2345
(lp2346
ssS'182134_ihpyrkop.mod'
p2347
(dp2348
S'ERROR_FLAGS'
p2349
(lp2350
I1
assS'146026_h.mod'
p2351
(dp2352
S'G_VALS'
p2353
(dp2354
S'gbar_ih'
p2355
F1.0
ssS'GATES'
p2356
(dp2357
S'qq'
p2358
I1
ssS'SUFFIX'
p2359
S'ih'
p2360
sS'GMAX_NAME'
p2361
g2355
sS'STATES'
p2362
(lp2363
g2358
asS'I_VALS'
p2364
(dp2365
F6.3
g16
(g20
S'\x04\x0c\xd9e4Z5?'
p2366
tp2367
Rp2368
sI37
g16
(g20
S'\x04\x0c\xd9e4Z5?'
p2369
tp2370
Rp2371
ssS'ERROR_FLAGS'
p2372
(lp2373
ssS'64216_h.mod'
p2374
(dp2375
S'G_VALS'
p2376
(dp2377
S'ghbar_h'
p2378
F3.5
ssS'GATES'
p2379
(dp2380
S'nh'
p2381
I1
ssS'SUFFIX'
p2382
S'h'
p2383
sS'GMAX_NAME'
p2384
g2378
sS'STATES'
p2385
(lp2386
g2381
asS'I_VALS'
p2387
(dp2388
F6.3
g16
(g20
S'\x02Hl\xfa(x9\xbf'
p2389
tp2390
Rp2391
sI37
g16
(g20
S'\x02Hl\xfa(x9\xbf'
p2392
tp2393
Rp2394
ssS'ERROR_FLAGS'
p2395
(lp2396
ssS'144523_TNC.mod'
p2397
(dp2398
S'ERROR_FLAGS'
p2399
(lp2400
I3
assS'184337_Ih.mod'
p2401
(dp2402
S'G_VALS'
p2403
(dp2404
S'gbar_Ih'
p2405
F1e-05
ssS'GATES'
p2406
(dp2407
S'm'
p2408
I1
ssS'SUFFIX'
p2409
S'Ih'
p2410
sS'GMAX_NAME'
p2411
g2405
sS'STATES'
p2412
(lp2413
g2408
asS'I_VALS'
p2414
(dp2415
F6.3
g16
(g20
S'\xa1+\xdfv)\x0b\x01?'
p2416
tp2417
Rp2418
sI37
g16
(g20
S'\xa1+\xdfv)\x0b\x01?'
p2419
tp2420
Rp2421
ssS'ERROR_FLAGS'
p2422
(lp2423
ssS'141273_ar.mod'
p2424
(dp2425
S'G_VALS'
p2426
(dp2427
S'gbar_ar'
p2428
F1.0
ssS'GATES'
p2429
(dp2430
S'm'
p2431
I1
ssS'SUFFIX'
p2432
S'ar'
p2433
sS'GMAX_NAME'
p2434
g2428
sS'STATES'
p2435
(lp2436
g2431
asS'I_VALS'
p2437
(dp2438
F6.3
g16
(g20
S'\xd3eLA.\x08J\xab'
p2439
tp2440
Rp2441
sI37
g16
(g20
S'\xd3eLA.\x08J\xab'
p2442
tp2443
Rp2444
ssS'ERROR_FLAGS'
p2445
(lp2446
ssS'44050_h.mod'
p2447
(dp2448
S'G_VALS'
p2449
(dp2450
S'ghdbar_hd'
p2451
F0.0001
ssS'GATES'
p2452
(dp2453
S'l'
p2454
I1
ssS'SUFFIX'
p2455
S'hd'
p2456
sS'GMAX_NAME'
p2457
g2451
sS'STATES'
p2458
(lp2459
g2454
asS'I_VALS'
p2460
(dp2461
F6.3
g16
(g20
S'F\xf9\xc3*\xcc\xe35?'
p2462
tp2463
Rp2464
sI37
g16
(g20
S'\xd0\x91\x86\x9c\xb2\xe35?'
p2465
tp2466
Rp2467
ssS'ERROR_FLAGS'
p2468
(lp2469
ssS'123815_hNa.mod'
p2470
(dp2471
S'G_VALS'
p2472
(dp2473
S'gbar_hNa'
p2474
F1.0
ssS'GATES'
p2475
(dp2476
S'n'
p2477
I1
ssS'SUFFIX'
p2478
S'hNa'
p2479
sS'GMAX_NAME'
p2480
g2474
sS'STATES'
p2481
(lp2482
g2477
asS'I_VALS'
p2483
(dp2484
F6.3
g16
(g20
S'\xfcx\xc2\xa5T\x1an?'
p2485
tp2486
Rp2487
sI37
g16
(g20
S'\xfcx\xc2\xa5T\x1an?'
p2488
tp2489
Rp2490
ssS'ERROR_FLAGS'
p2491
(lp2492
ssS'151282_CA3ih.mod'
p2493
(dp2494
S'ERROR_FLAGS'
p2495
(lp2496
I4
assS'182797_Ih.mod'
p2497
(dp2498
S'G_VALS'
p2499
(dp2500
S'gkhbar_Ih'
p2501
F5e-06
ssS'GATES'
p2502
(dp2503
S'r'
p2504
I2
ssS'SUFFIX'
p2505
S'Ih'
p2506
sS'GMAX_NAME'
p2507
g2501
sS'STATES'
p2508
(lp2509
g2504
asS'I_VALS'
p2510
(dp2511
F6.3
g16
(g20
S'\x18\xfem\x04H\xbf\x1f?'
p2512
tp2513
Rp2514
sI37
g16
(g20
S'\x18\xfem\x04H\xbf\x1f?'
p2515
tp2516
Rp2517
ssS'ERROR_FLAGS'
p2518
(lp2519
ssS'93321_h.mod'
p2520
(dp2521
S'G_VALS'
p2522
(dp2523
S'gbar_h'
p2524
F1.0
ssS'GATES'
p2525
(dp2526
S'm'
p2527
I1
ssS'SUFFIX'
p2528
S'h'
p2529
sS'GMAX_NAME'
p2530
g2524
sS'STATES'
p2531
(lp2532
g2527
asS'I_VALS'
p2533
(dp2534
F6.3
g16
(g20
S'\x1dm\xba\r\xed\x8a\x11\xa5'
p2535
tp2536
Rp2537
sI37
g16
(g20
S'\x1dm\xba\r\xed\x8a\x11\xa5'
p2538
tp2539
Rp2540
ssS'ERROR_FLAGS'
p2541
(lp2542
ssS'135902_CA1ih.mod'
p2543
(dp2544
S'ERROR_FLAGS'
p2545
(lp2546
I5
assS'80769_Ih.mod'
p2547
(dp2548
S'G_VALS'
p2549
(dp2550
S'ghbar_Ih'
p2551
F0.0002
ssS'GATES'
p2552
(dp2553
S'n'
p2554
I1
ssS'SUFFIX'
p2555
S'Ih'
p2556
sS'GMAX_NAME'
p2557
g2551
sS'STATES'
p2558
(lp2559
g2554
asS'I_VALS'
p2560
(dp2561
F6.3
g16
(g20
S'\xb0\xee&mQ\x08F?'
p2562
tp2563
Rp2564
sI37
g16
(g20
S'\x068\xad\xdbD\x08F?'
p2565
tp2566
Rp2567
ssS'ERROR_FLAGS'
p2568
(lp2569
ssS'155601_hyperde3.mod'
p2570
(dp2571
S'ERROR_FLAGS'
p2572
(lp2573
I7
assS'87284_h.mod'
p2574
(dp2575
S'G_VALS'
p2576
(dp2577
S'ghdbar_hd'
p2578
F0.0001
ssS'GATES'
p2579
(dp2580
S'l'
p2581
I1
ssS'SUFFIX'
p2582
S'hd'
p2583
sS'GMAX_NAME'
p2584
g2578
sS'STATES'
p2585
(lp2586
g2581
asS'I_VALS'
p2587
(dp2588
F6.3
g16
(g20
S'F\xf9\xc3*\xcc\xe35?'
p2589
tp2590
Rp2591
sI37
g16
(g20
S'\xd0\x91\x86\x9c\xb2\xe35?'
p2592
tp2593
Rp2594
ssS'ERROR_FLAGS'
p2595
(lp2596
ssS'108459_h.mod'
p2597
(dp2598
S'G_VALS'
p2599
(dp2600
S'ghdbar_ih'
p2601
F0.00015
ssS'GATES'
p2602
(dp2603
S'qq'
p2604
I1
ssS'SUFFIX'
p2605
S'ih'
p2606
sS'GMAX_NAME'
p2607
g2601
sS'STATES'
p2608
(lp2609
g2604
asS'I_VALS'
p2610
(dp2611
F6.3
g16
(g20
S'\xab*\xc7\xba\xc7\x08@?'
p2612
tp2613
Rp2614
sI37
g16
(g20
S'\xab*\xc7\xba\xc7\x08@?'
p2615
tp2616
Rp2617
ssS'ERROR_FLAGS'
p2618
(lp2619
ssS'135902_iholmkop.mod'
p2620
(dp2621
S'ERROR_FLAGS'
p2622
(lp2623
I1
assS'124043_h2.mod'
p2624
(dp2625
S'G_VALS'
p2626
(dp2627
S'ghbar_h'
p2628
F0.0001
ssS'GATES'
p2629
(dp2630
S'q'
p2631
I1
ssS'SUFFIX'
p2632
S'h'
p2633
sS'GMAX_NAME'
p2634
g2628
sS'STATES'
p2635
(lp2636
g2631
asS'I_VALS'
p2637
(dp2638
F6.3
g16
(g20
S'-b\xad\x06<\xa45?'
p2639
tp2640
Rp2641
sI37
g16
(g20
S'-b\xad\x06<\xa45?'
p2642
tp2643
Rp2644
ssS'ERROR_FLAGS'
p2645
(lp2646
ssS'20007_KhdM01.mod'
p2647
(dp2648
S'G_VALS'
p2649
(dp2650
S'ghdbar_KhdM01'
p2651
F0.0001
ssS'GATES'
p2652
(dp2653
S'l'
p2654
I1
ssS'SUFFIX'
p2655
S'KhdM01'
p2656
sS'GMAX_NAME'
p2657
g2651
sS'STATES'
p2658
(lp2659
g2654
asS'I_VALS'
p2660
(dp2661
F6.3
g16
(g20
S'\xf3\xf7\x03-\xae_5?'
p2662
tp2663
Rp2664
sI37
g16
(g20
S'\xa6\xb8,g6i5?'
p2665
tp2666
Rp2667
ssS'ERROR_FLAGS'
p2668
(lp2669
ssS'184346_Ih.mod'
p2670
(dp2671
S'G_VALS'
p2672
(dp2673
S'gbar_Ih'
p2674
F1e-05
ssS'GATES'
p2675
(dp2676
S'm'
p2677
I1
ssS'SUFFIX'
p2678
S'Ih'
p2679
sS'GMAX_NAME'
p2680
g2674
sS'STATES'
p2681
(lp2682
g2677
asS'I_VALS'
p2683
(dp2684
F6.3
g16
(g20
S'\xa1+\xdfv)\x0b\x01?'
p2685
tp2686
Rp2687
sI37
g16
(g20
S'\xa1+\xdfv)\x0b\x01?'
p2688
tp2689
Rp2690
ssS'ERROR_FLAGS'
p2691
(lp2692
ssS'169457_Ih.mod'
p2693
(dp2694
S'G_VALS'
p2695
(dp2696
S'gIhbar_Ih'
p2697
F1e-05
ssS'GATES'
p2698
(dp2699
S'm'
p2700
I1
ssS'SUFFIX'
p2701
S'Ih'
p2702
sS'GMAX_NAME'
p2703
g2697
sS'STATES'
p2704
(lp2705
g2700
asS'I_VALS'
p2706
(dp2707
F6.3
g16
(g20
S'\x7f\x8a\xe8v)\x0b\x01?'
p2708
tp2709
Rp2710
sI37
g16
(g20
S'\x7f\x8a\xe8v)\x0b\x01?'
p2711
tp2712
Rp2713
ssS'ERROR_FLAGS'
p2714
(lp2715
ssS'55035_h.mod'
p2716
(dp2717
S'G_VALS'
p2718
(dp2719
S'ghdbar_hd'
p2720
F0.0001
ssS'GATES'
p2721
(dp2722
S'l'
p2723
I1
ssS'SUFFIX'
p2724
S'hd'
p2725
sS'GMAX_NAME'
p2726
g2720
sS'STATES'
p2727
(lp2728
g2723
asS'I_VALS'
p2729
(dp2730
F6.3
g16
(g20
S'F\xf9\xc3*\xcc\xe35?'
p2731
tp2732
Rp2733
sI37
g16
(g20
S'\xd0\x91\x86\x9c\xb2\xe35?'
p2734
tp2735
Rp2736
ssS'ERROR_FLAGS'
p2737
(lp2738
ssS'143719_h.mod'
p2739
(dp2740
S'G_VALS'
p2741
(dp2742
S'gbar_h'
p2743
F1.0
ssS'GATES'
p2744
(dp2745
S'n'
p2746
I1
ssS'SUFFIX'
p2747
S'h'
p2748
sS'GMAX_NAME'
p2749
g2743
sS'STATES'
p2750
(lp2751
g2746
asS'I_VALS'
p2752
(dp2753
F6.3
g16
(g20
S',\xdb9\xc1\x9b\x06m\xb8'
p2754
tp2755
Rp2756
sI37
g16
(g20
S',\xdb9\xc1\x9b\x06m\xb8'
p2757
tp2758
Rp2759
ssS'ERROR_FLAGS'
p2760
(lp2761
ssS'156120_h_chann.mod'
p2762
(dp2763
S'G_VALS'
p2764
(dp2765
S'ghdbar_hd'
p2766
F0.0001
ssS'GATES'
p2767
(dp2768
S'l'
p2769
I1
ssS'SUFFIX'
p2770
S'hd'
p2771
sS'GMAX_NAME'
p2772
g2766
sS'STATES'
p2773
(lp2774
g2769
asS'I_VALS'
p2775
(dp2776
F6.3
g16
(g20
S'\xc9Up*\xcd\xc05?'
p2777
tp2778
Rp2779
sI37
g16
(g20
S'\x07\x1b\x03\x83\xbb\xc05?'
p2780
tp2781
Rp2782
ssS'ERROR_FLAGS'
p2783
(lp2784
ssS'136095_ntIh.mod'
p2785
(dp2786
S'G_VALS'
p2787
(dp2788
S'ghbar_iar'
p2789
F0.0008
ssS'GATES'
p2790
(dp2791
S'h'
p2792
I1
ssS'SUFFIX'
p2793
S'iar'
p2794
sS'GMAX_NAME'
p2795
g2789
sS'STATES'
p2796
(lp2797
g2792
asS'I_VALS'
p2798
(dp2799
F6.3
g16
(g20
S'\xbd\xe8\xfa\xf6W\x88u?'
p2800
tp2801
Rp2802
sI37
g16
(g20
S'2\xe9\xad\x9a\x81\x85u?'
p2803
tp2804
Rp2805
ssS'ERROR_FLAGS'
p2806
(lp2807
ssS'3684_htc.mod'
p2808
(dp2809
S'G_VALS'
p2810
(dp2811
S'ghbar_htc'
p2812
F5e-05
ssS'GATES'
p2813
(dp2814
S'l'
p2815
I1
ssS'SUFFIX'
p2816
S'htc'
p2817
sS'GMAX_NAME'
p2818
g2812
sS'STATES'
p2819
(lp2820
g2815
asS'I_VALS'
p2821
(dp2822
F6.3
g16
(g20
S'5\xf5\x99\xda\xf0\xa3%?'
p2823
tp2824
Rp2825
sI37
g16
(g20
S'\xfa\xa41h\xf0\xa3%?'
p2826
tp2827
Rp2828
ssS'ERROR_FLAGS'
p2829
(lp2830
ssS'37856_pyr.mod'
p2831
(dp2832
S'ERROR_FLAGS'
p2833
(lp2834
I8
assS'180789_cha.mod'
p2835
(dp2836
S'G_VALS'
p2837
(dp2838
S'gkhbar_cha'
p2839
F0.001385
ssS'GATES'
p2840
(dp2841
S'r'
p2842
I1
ssS'SUFFIX'
p2843
S'cha'
p2844
sS'GMAX_NAME'
p2845
g2839
sS'STATES'
p2846
(lp2847
g2842
asS'I_VALS'
p2848
(dp2849
F6.3
g16
(g20
S'\xd2\xd1@d\xef\xf1\x80?'
p2850
tp2851
Rp2852
sI37
g16
(g20
S'\xd2\xd1@d\xef\xf1\x80?'
p2853
tp2854
Rp2855
ssS'ERROR_FLAGS'
p2856
(lp2857
ssS'184139_KhdM01.mod'
p2858
(dp2859
S'G_VALS'
p2860
(dp2861
S'ghdbar_KhdM01'
p2862
F0.0001
ssS'GATES'
p2863
(dp2864
S'l'
p2865
I1
ssS'SUFFIX'
p2866
S'KhdM01'
p2867
sS'GMAX_NAME'
p2868
g2862
sS'STATES'
p2869
(lp2870
g2865
asS'I_VALS'
p2871
(dp2872
F6.3
g16
(g20
S'\xf3\xf7\x03-\xae_5?'
p2873
tp2874
Rp2875
sI37
g16
(g20
S'\xa6\xb8,g6i5?'
p2876
tp2877
Rp2878
ssS'ERROR_FLAGS'
p2879
(lp2880
ssS'184327_Ih.mod'
p2881
(dp2882
S'G_VALS'
p2883
(dp2884
S'gbar_Ih'
p2885
F1e-05
ssS'GATES'
p2886
(dp2887
S'm'
p2888
I1
ssS'SUFFIX'
p2889
S'Ih'
p2890
sS'GMAX_NAME'
p2891
g2885
sS'STATES'
p2892
(lp2893
g2888
asS'I_VALS'
p2894
(dp2895
F6.3
g16
(g20
S'\xa1+\xdfv)\x0b\x01?'
p2896
tp2897
Rp2898
sI37
g16
(g20
S'\xa1+\xdfv)\x0b\x01?'
p2899
tp2900
Rp2901
ssS'ERROR_FLAGS'
p2902
(lp2903
ssS'147867_h.mod'
p2904
(dp2905
S'G_VALS'
p2906
(dp2907
S'ghdbar_hd'
p2908
F0.0001
ssS'GATES'
p2909
(dp2910
S'l'
p2911
I1
ssS'SUFFIX'
p2912
S'hd'
p2913
sS'GMAX_NAME'
p2914
g2908
sS'STATES'
p2915
(lp2916
g2911
asS'I_VALS'
p2917
(dp2918
F6.3
g16
(g20
S'\xedS\xa6\xd6\x8c\x875?'
p2919
tp2920
Rp2921
sI37
g16
(g20
S'\xfc\\\xa0\xf8\x8a\x875?'
p2922
tp2923
Rp2924
ssS'ERROR_FLAGS'
p2925
(lp2926
ssS'122329_hcn2_gp.mod'
p2927
(dp2928
S'ERROR_FLAGS'
p2929
(lp2930
I4
assS'64229_hyperde3_icgIH2.mod'
p2931
(dp2932
S'ERROR_FLAGS'
p2933
(lp2934
I7
assS'135903_ihpyrkop.mod'
p2935
(dp2936
S'ERROR_FLAGS'
p2937
(lp2938
I1
assS'119266_h.mod'
p2939
(dp2940
S'G_VALS'
p2941
(dp2942
S'gbar_h'
p2943
F1.0
ssS'GATES'
p2944
(dp2945
S'n'
p2946
I1
ssS'SUFFIX'
p2947
S'h'
p2948
sS'GMAX_NAME'
p2949
g2943
sS'STATES'
p2950
(lp2951
g2946
asS'I_VALS'
p2952
(dp2953
F6.3
g16
(g20
S'\x1b\xf8\x9ba\x9d%\x12\xbd'
p2954
tp2955
Rp2956
sI37
g16
(g20
S'\x1b\xf8\x9ba\x9d%\x12\xbd'
p2957
tp2958
Rp2959
ssS'ERROR_FLAGS'
p2960
(lp2961
ssS'3677_iqq.mod'
p2962
(dp2963
S'G_VALS'
p2964
(dp2965
S'gqbar_qq'
p2966
F0.003
ssS'GATES'
p2967
(dp2968
S'qq'
p2969
I1
ssS'SUFFIX'
p2970
S'qq'
p2971
sS'GMAX_NAME'
p2972
g2966
sS'STATES'
p2973
(lp2974
g2969
asS'I_VALS'
p2975
(dp2976
F6.3
g16
(g20
S'#\xd5\xc3.\xe9\x80\x90?'
p2977
tp2978
Rp2979
sI37
g16
(g20
S'G\xeb\xe0{V+\x95?'
p2980
tp2981
Rp2982
ssS'ERROR_FLAGS'
p2983
(lp2984
ssS'184339_Ih.mod'
p2985
(dp2986
S'G_VALS'
p2987
(dp2988
S'gbar_Ih'
p2989
F1e-05
ssS'GATES'
p2990
(dp2991
S'm'
p2992
I1
ssS'SUFFIX'
p2993
S'Ih'
p2994
sS'GMAX_NAME'
p2995
g2989
sS'STATES'
p2996
(lp2997
g2992
asS'I_VALS'
p2998
(dp2999
F6.3
g16
(g20
S'\xa1+\xdfv)\x0b\x01?'
p3000
tp3001
Rp3002
sI37
g16
(g20
S'\xa1+\xdfv)\x0b\x01?'
p3003
tp3004
Rp3005
ssS'ERROR_FLAGS'
p3006
(lp3007
ssS'135902_ihpyrkop.mod'
p3008
(dp3009
S'ERROR_FLAGS'
p3010
(lp3011
I1
assS'147757_h.mod'
p3012
(dp3013
S'G_VALS'
p3014
(dp3015
S'gbar_h'
p3016
F1.0
ssS'GATES'
p3017
(dp3018
S'n'
p3019
I1
ssS'SUFFIX'
p3020
S'h'
p3021
sS'GMAX_NAME'
p3022
g3016
sS'STATES'
p3023
(lp3024
g3019
asS'I_VALS'
p3025
(dp3026
F6.3
g16
(g20
S',\xdb9\xc1\x9b\x06m\xb8'
p3027
tp3028
Rp3029
sI37
g16
(g20
S',\xdb9\xc1\x9b\x06m\xb8'
p3030
tp3031
Rp3032
ssS'ERROR_FLAGS'
p3033
(lp3034
ssS'64229_arhRT03_v2.mod'
p3035
(dp3036
S'ERROR_FLAGS'
p3037
(lp3038
I1
assS'8284_hyperde3.mod'
p3039
(dp3040
S'ERROR_FLAGS'
p3041
(lp3042
I7
assS'144490_h_v2.mod'
p3043
(dp3044
S'G_VALS'
p3045
(dp3046
S'gbar_h'
p3047
F1.0
ssS'GATES'
p3048
(dp3049
S'n'
p3050
I1
ssS'SUFFIX'
p3051
S'h'
p3052
sS'GMAX_NAME'
p3053
g3047
sS'STATES'
p3054
(lp3055
g3050
asS'I_VALS'
p3056
(dp3057
F6.3
g16
(g20
S'\x14\x8c\xa8\xc7\x9d"\x12\xbd'
p3058
tp3059
Rp3060
sI37
g16
(g20
S'\x14\x8c\xa8\xc7\x9d"\x12\xbd'
p3061
tp3062
Rp3063
ssS'ERROR_FLAGS'
p3064
(lp3065
ssS'8284_hyperde1.mod'
p3066
(dp3067
S'ERROR_FLAGS'
p3068
(lp3069
I7
assS'144579_ar.mod'
p3070
(dp3071
S'G_VALS'
p3072
(dp3073
S'gbar_ar'
p3074
F1.0
ssS'GATES'
p3075
(dp3076
S'm'
p3077
I1
ssS'SUFFIX'
p3078
S'ar'
p3079
sS'GMAX_NAME'
p3080
g3074
sS'STATES'
p3081
(lp3082
g3077
asS'I_VALS'
p3083
(dp3084
F6.3
g16
(g20
S'\xf0\x07\x93\x88S\x07J\xab'
p3085
tp3086
Rp3087
sI37
g16
(g20
S'\xf0\x07\x93\x88S\x07J\xab'
p3088
tp3089
Rp3090
ssS'ERROR_FLAGS'
p3091
(lp3092
ssS'84589_hdend.mod'
p3093
(dp3094
S'ERROR_FLAGS'
p3095
(lp3096
I1
assS'155796_ih.mod'
p3097
(dp3098
S'G_VALS'
p3099
(dp3100
S'gbar_ih'
p3101
F0.0001
ssS'GATES'
p3102
(dp3103
S'l'
p3104
I1
ssS'SUFFIX'
p3105
S'ih'
p3106
sS'GMAX_NAME'
p3107
g3101
sS'STATES'
p3108
(lp3109
g3104
asS'I_VALS'
p3110
(dp3111
F6.3
g16
(g20
S'\xc8t\xcde\xc2\xdb6?'
p3112
tp3113
Rp3114
sI37
g16
(g20
S'es\xc2\xbc\xc2\xdb6?'
p3115
tp3116
Rp3117
ssS'ERROR_FLAGS'
p3118
(lp3119
ssS'64229_arhRT03.mod'
p3120
(dp3121
S'ERROR_FLAGS'
p3122
(lp3123
I1
assS'139653_Ih.mod'
p3124
(dp3125
S'G_VALS'
p3126
(dp3127
S'gIhbar_Ih'
p3128
F1e-05
ssS'GATES'
p3129
(dp3130
S'm'
p3131
I1
ssS'SUFFIX'
p3132
S'Ih'
p3133
sS'GMAX_NAME'
p3134
g3128
sS'STATES'
p3135
(lp3136
g3131
asS'I_VALS'
p3137
(dp3138
F6.3
g16
(g20
S'\xa1+\xdfv)\x0b\x01?'
p3139
tp3140
Rp3141
sI37
g16
(g20
S'\xa1+\xdfv)\x0b\x01?'
p3142
tp3143
Rp3144
ssS'ERROR_FLAGS'
p3145
(lp3146
ssS'151825_ih.mod'
p3147
(dp3148
S'G_VALS'
p3149
(dp3150
S'gbar_iH'
p3151
F1.0
ssS'GATES'
p3152
(dp3153
S'h'
p3154
I1
ssS'SUFFIX'
p3155
S'iH'
p3156
sS'GMAX_NAME'
p3157
g3151
sS'STATES'
p3158
(lp3159
g3154
asS'I_VALS'
p3160
(dp3161
F6.3
g16
(g20
S'\x03\xbd\xa1u\x8b\\5?'
p3162
tp3163
Rp3164
sI37
g16
(g20
S'2$\xc9_\x8b\\5?'
p3165
tp3166
Rp3167
ssS'ERROR_FLAGS'
p3168
(lp3169
ssS'121259_h.mod'
p3170
(dp3171
S'G_VALS'
p3172
(dp3173
S'ghdbar_hd'
p3174
F0.0001
ssS'GATES'
p3175
(dp3176
S'l'
p3177
I1
ssS'SUFFIX'
p3178
S'hd'
p3179
sS'GMAX_NAME'
p3180
g3174
sS'STATES'
p3181
(lp3182
g3177
asS'I_VALS'
p3183
(dp3184
F6.3
g16
(g20
S'\xf3\xf7\x03-\xae_5?'
p3185
tp3186
Rp3187
sI37
g16
(g20
S'\xa6\xb8,g6i5?'
p3188
tp3189
Rp3190
ssS'ERROR_FLAGS'
p3191
(lp3192
ssS'7659_h.mod'
p3193
(dp3194
S'G_VALS'
p3195
(dp3196
S'ghdbar_hd'
p3197
F0.0001
ssS'GATES'
p3198
(dp3199
S'l'
p3200
I1
ssS'SUFFIX'
p3201
S'hd'
p3202
sS'GMAX_NAME'
p3203
g3197
sS'STATES'
p3204
(lp3205
g3200
asS'I_VALS'
p3206
(dp3207
F6.3
g16
(g20
S'\xf3\xf7\x03-\xae_5?'
p3208
tp3209
Rp3210
sI37
g16
(g20
S'\xa6\xb8,g6i5?'
p3211
tp3212
Rp3213
ssS'ERROR_FLAGS'
p3214
(lp3215
ssS'114394_h.mod'
p3216
(dp3217
S'G_VALS'
p3218
(dp3219
S'ghdbar_ih'
p3220
F0.00015
ssS'GATES'
p3221
(dp3222
S'qq'
p3223
I1
ssS'SUFFIX'
p3224
S'ih'
p3225
sS'GMAX_NAME'
p3226
g3220
sS'STATES'
p3227
(lp3228
g3223
asS'I_VALS'
p3229
(dp3230
F6.3
g16
(g20
S'\xab*\xc7\xba\xc7\x08@?'
p3231
tp3232
Rp3233
sI37
g16
(g20
S'\xab*\xc7\xba\xc7\x08@?'
p3234
tp3235
Rp3236
ssS'ERROR_FLAGS'
p3237
(lp3238
ssS'168858_hcurrent.mod'
p3239
(dp3240
S'G_VALS'
p3241
(dp3242
S'gbar_ar'
p3243
F1.0
ssS'GATES'
p3244
(dp3245
S'm'
p3246
I1
ssS'SUFFIX'
p3247
S'ar'
p3248
sS'GMAX_NAME'
p3249
g3243
sS'STATES'
p3250
(lp3251
g3246
asS'I_VALS'
p3252
(dp3253
F6.3
g16
(g20
S'\xc2\xd7\xd04\xf3N#@'
p3254
tp3255
Rp3256
sI37
g16
(g20
S'\xc2\xd7\xd04\xf3N#@'
p3257
tp3258
Rp3259
ssS'ERROR_FLAGS'
p3260
(lp3261
ssS'155602_hyperde3.mod'
p3262
(dp3263
S'ERROR_FLAGS'
p3264
(lp3265
I7
assS'101629_h.mod'
p3266
(dp3267
S'G_VALS'
p3268
(dp3269
S'ghdbar_hd'
p3270
F0.0001
ssS'GATES'
p3271
(dp3272
S'l'
p3273
I1
ssS'SUFFIX'
p3274
S'hd'
p3275
sS'GMAX_NAME'
p3276
g3270
sS'STATES'
p3277
(lp3278
g3273
asS'I_VALS'
p3279
(dp3280
F6.3
g16
(g20
S'\xb7\xe9\xb2X\xe1\xb06?'
p3281
tp3282
Rp3283
sI37
g16
(g20
S'\x87\x131\x05j\xb06?'
p3284
tp3285
Rp3286
ssS'ERROR_FLAGS'
p3287
(lp3288
ssS'8284_hyperde1_icgIH2.mod'
p3289
(dp3290
S'ERROR_FLAGS'
p3291
(lp3292
I7
assS'139421_iholmkop.mod'
p3293
(dp3294
S'ERROR_FLAGS'
p3295
(lp3296
I1
assS'150538_h.mod'
p3297
(dp3298
S'G_VALS'
p3299
(dp3300
S'ghdbar_hd'
p3301
F0.0001
ssS'GATES'
p3302
(dp3303
S'l'
p3304
I1
ssS'SUFFIX'
p3305
S'hd'
p3306
sS'GMAX_NAME'
p3307
g3301
sS'STATES'
p3308
(lp3309
g3304
asS'I_VALS'
p3310
(dp3311
F6.3
g16
(g20
S'F\xf9\xc3*\xcc\xe35?'
p3312
tp3313
Rp3314
sI37
g16
(g20
S'\xd0\x91\x86\x9c\xb2\xe35?'
p3315
tp3316
Rp3317
ssS'ERROR_FLAGS'
p3318
(lp3319
ssS'144392_h.mod'
p3320
(dp3321
S'G_VALS'
p3322
(dp3323
S'ghdbar_hd'
p3324
F0.0001
ssS'GATES'
p3325
(dp3326
S'l'
p3327
I1
ssS'SUFFIX'
p3328
S'hd'
p3329
sS'GMAX_NAME'
p3330
g3324
sS'STATES'
p3331
(lp3332
g3327
asS'I_VALS'
p3333
(dp3334
F6.3
g16
(g20
S'\xb7\xe9\xb2X\xe1\xb06?'
p3335
tp3336
Rp3337
sI37
g16
(g20
S'\x87\x131\x05j\xb06?'
p3338
tp3339
Rp3340
ssS'ERROR_FLAGS'
p3341
(lp3342
ssS'71312_h.mod'
p3343
(dp3344
S'G_VALS'
p3345
(dp3346
S'ghdbar_hd'
p3347
F0.0001
ssS'GATES'
p3348
(dp3349
S'l'
p3350
I1
ssS'SUFFIX'
p3351
S'hd'
p3352
sS'GMAX_NAME'
p3353
g3347
sS'STATES'
p3354
(lp3355
g3350
asS'I_VALS'
p3356
(dp3357
F6.3
g16
(g20
S'F\xf9\xc3*\xcc\xe35?'
p3358
tp3359
Rp3360
sI37
g16
(g20
S'\xd0\x91\x86\x9c\xb2\xe35?'
p3361
tp3362
Rp3363
ssS'ERROR_FLAGS'
p3364
(lp3365
ssS'138205_h.mod'
p3366
(dp3367
S'G_VALS'
p3368
(dp3369
S'ghdbar_hd'
p3370
F0.0001
ssS'GATES'
p3371
(dp3372
S'l'
p3373
I1
ssS'SUFFIX'
p3374
S'hd'
p3375
sS'GMAX_NAME'
p3376
g3370
sS'STATES'
p3377
(lp3378
g3373
asS'I_VALS'
p3379
(dp3380
F6.3
g16
(g20
S'F\xf9\xc3*\xcc\xe35?'
p3381
tp3382
Rp3383
sI37
g16
(g20
S'\xd0\x91\x86\x9c\xb2\xe35?'
p3384
tp3385
Rp3386
ssS'ERROR_FLAGS'
p3387
(lp3388
ssS'95870_hyper.mod'
p3389
(dp3390
S'G_VALS'
p3391
(dp3392
S'ghyperbar_hyper'
p3393
F3.5
ssS'GATES'
p3394
(dp3395
S'nhyper'
p3396
I1
ssS'SUFFIX'
p3397
S'hyper'
p3398
sS'GMAX_NAME'
p3399
g3393
sS'STATES'
p3400
(lp3401
g3396
asS'I_VALS'
p3402
(dp3403
F6.3
g16
(g20
S'\x02Hl\xfa(x9\xbf'
p3404
tp3405
Rp3406
sI37
g16
(g20
S'\x02Hl\xfa(x9\xbf'
p3407
tp3408
Rp3409
ssS'ERROR_FLAGS'
p3410
(lp3411
ssS'141063_ih.mod'
p3412
(dp3413
S'G_VALS'
p3414
(dp3415
S'gbar_ih'
p3416
F0.0003
ssS'GATES'
p3417
(dp3418
S'a'
p3419
I1
ssS'SUFFIX'
p3420
S'ih'
p3421
sS'GMAX_NAME'
p3422
g3416
sS'STATES'
p3423
(lp3424
g3419
asS'I_VALS'
p3425
(dp3426
F6.3
g16
(g20
S'`i\xf2\xda)\xd6C?'
p3427
tp3428
Rp3429
sI37
g16
(g20
S'\x02\xe7\x99\x86Y\x97V?'
p3430
tp3431
Rp3432
ssS'ERROR_FLAGS'
p3433
(lp3434
ssS'155735_ihpkj_cn.mod'
p3435
(dp3436
S'ERROR_FLAGS'
p3437
(lp3438
I4
assS'20212_h.mod'
p3439
(dp3440
S'G_VALS'
p3441
(dp3442
S'gbar_h'
p3443
F1.0
ssS'GATES'
p3444
(dp3445
S'n'
p3446
I1
ssS'SUFFIX'
p3447
S'h'
p3448
sS'GMAX_NAME'
p3449
g3443
sS'STATES'
p3450
(lp3451
g3446
asS'I_VALS'
p3452
(dp3453
F6.3
g16
(g20
S'\x14\x8c\xa8\xc7\x9d"\x12\xbd'
p3454
tp3455
Rp3456
sI37
g16
(g20
S'\x14\x8c\xa8\xc7\x9d"\x12\xbd'
p3457
tp3458
Rp3459
ssS'ERROR_FLAGS'
p3460
(lp3461
ssS'185858_Ih.mod'
p3462
(dp3463
S'ERROR_FLAGS'
p3464
(lp3465
I4
assS'140828_h.mod'
p3466
(dp3467
S'G_VALS'
p3468
(dp3469
S'ghdbar_hd'
p3470
F0.0001
ssS'GATES'
p3471
(dp3472
S'l'
p3473
I1
ssS'SUFFIX'
p3474
S'hd'
p3475
sS'GMAX_NAME'
p3476
g3470
sS'STATES'
p3477
(lp3478
g3473
asS'I_VALS'
p3479
(dp3480
F6.3
g16
(g20
S'F\xf9\xc3*\xcc\xe35?'
p3481
tp3482
Rp3483
sI37
g16
(g20
S'\xd0\x91\x86\x9c\xb2\xe35?'
p3484
tp3485
Rp3486
ssS'ERROR_FLAGS'
p3487
(lp3488
ssS'112546_h.mod'
p3489
(dp3490
S'G_VALS'
p3491
(dp3492
S'ghdbar_hd'
p3493
F0.0001
ssS'GATES'
p3494
(dp3495
S'l'
p3496
I1
ssS'SUFFIX'
p3497
S'hd'
p3498
sS'GMAX_NAME'
p3499
g3493
sS'STATES'
p3500
(lp3501
g3496
asS'I_VALS'
p3502
(dp3503
F6.3
g16
(g20
S'\xb7\xe9\xb2X\xe1\xb06?'
p3504
tp3505
Rp3506
sI37
g16
(g20
S'\x87\x131\x05j\xb06?'
p3507
tp3508
Rp3509
ssS'ERROR_FLAGS'
p3510
(lp3511
ssS'123453_HCN.mod'
p3512
(dp3513
S'G_VALS'
p3514
(dp3515
S'gbar_HCN'
p3516
F0.0001
ssS'GATES'
p3517
(dp3518
S'n'
p3519
I2
ssS'SUFFIX'
p3520
S'HCN'
p3521
sS'GMAX_NAME'
p3522
g3516
sS'STATES'
p3523
(lp3524
g3519
asS'I_VALS'
p3525
(dp3526
F6.3
g16
(g20
S'c^\tD)pr?'
p3527
tp3528
Rp3529
sI37
g16
(g20
S'\xe7\xa7\xc0>\xabqr?'
p3530
tp3531
Rp3532
ssS'ERROR_FLAGS'
p3533
(lp3534
ssS'124043_ih.mod'
p3535
(dp3536
S'G_VALS'
p3537
(dp3538
S'ghdbar_ih'
p3539
F0.00015
ssS'GATES'
p3540
(dp3541
S'qq'
p3542
I1
ssS'SUFFIX'
p3543
S'ih'
p3544
sS'GMAX_NAME'
p3545
g3539
sS'STATES'
p3546
(lp3547
g3542
asS'I_VALS'
p3548
(dp3549
F6.3
g16
(g20
S'\xab*\xc7\xba\xc7\x08@?'
p3550
tp3551
Rp3552
sI37
g16
(g20
S'\xab*\xc7\xba\xc7\x08@?'
p3553
tp3554
Rp3555
ssS'ERROR_FLAGS'
p3556
(lp3557
ssS'118986_h.mod'
p3558
(dp3559
S'G_VALS'
p3560
(dp3561
S'ghdbar_hd'
p3562
F0.0001
ssS'GATES'
p3563
(dp3564
S'l'
p3565
I1
ssS'SUFFIX'
p3566
S'hd'
p3567
sS'GMAX_NAME'
p3568
g3562
sS'STATES'
p3569
(lp3570
g3565
asS'I_VALS'
p3571
(dp3572
F6.3
g16
(g20
S'\xb7\xe9\xb2X\xe1\xb06?'
p3573
tp3574
Rp3575
sI37
g16
(g20
S'\x87\x131\x05j\xb06?'
p3576
tp3577
Rp3578
ssS'ERROR_FLAGS'
p3579
(lp3580
ssS'51781_hyperde3.mod'
p3581
(dp3582
S'ERROR_FLAGS'
p3583
(lp3584
I7
assS'97917_ar.mod'
p3585
(dp3586
S'G_VALS'
p3587
(dp3588
S'gbar_ar'
p3589
F1.0
ssS'GATES'
p3590
(dp3591
S'm'
p3592
I1
ssS'SUFFIX'
p3593
S'ar'
p3594
sS'GMAX_NAME'
p3595
g3589
sS'STATES'
p3596
(lp3597
g3592
asS'I_VALS'
p3598
(dp3599
F6.3
g16
(g20
S'\xf0\x07\x93\x88S\x07J\xab'
p3600
tp3601
Rp3602
sI37
g16
(g20
S'\xf0\x07\x93\x88S\x07J\xab'
p3603
tp3604
Rp3605
ssS'ERROR_FLAGS'
p3606
(lp3607
ssS'115356_h.mod'
p3608
(dp3609
S'G_VALS'
p3610
(dp3611
S'ghdbar_hd'
p3612
F0.0001
ssS'GATES'
p3613
(dp3614
S'l'
p3615
I1
ssS'SUFFIX'
p3616
S'hd'
p3617
sS'GMAX_NAME'
p3618
g3612
sS'STATES'
p3619
(lp3620
g3615
asS'I_VALS'
p3621
(dp3622
F6.3
g16
(g20
S'\xce3s\xe8#h5?'
p3623
tp3624
Rp3625
sI37
g16
(g20
S':MT\xdf"h5?'
p3626
tp3627
Rp3628
ssS'ERROR_FLAGS'
p3629
(lp3630
ssS'139421_CA1ih.mod'
p3631
(dp3632
S'ERROR_FLAGS'
p3633
(lp3634
I5
assS'144526_h.mod'
p3635
(dp3636
S'G_VALS'
p3637
(dp3638
S'gbar_ih'
p3639
F0.00015
ssS'GATES'
p3640
(dp3641
S'h'
p3642
I1
ssS'SUFFIX'
p3643
S'ih'
p3644
sS'GMAX_NAME'
p3645
g3639
sS'STATES'
p3646
(lp3647
g3642
asS'I_VALS'
p3648
(dp3649
F6.3
g16
(g20
S'\xab*\xc7\xba\xc7\x08@?'
p3650
tp3651
Rp3652
sI37
g16
(g20
S'\xab*\xc7\xba\xc7\x08@?'
p3653
tp3654
Rp3655
ssS'ERROR_FLAGS'
p3656
(lp3657
ssS'74298_Ih.mod'
p3658
(dp3659
S'G_VALS'
p3660
(dp3661
S'gmaxQ10_Ih'
p3662
F2.0
sS'gmax_k_Ih'
p3663
F0.0
ssS'GATES'
p3664
(dp3665
S'f'
p3666
I1
ssS'SUFFIX'
p3667
S'Ih'
p3668
sS'GMAX_NAME'
p3669
g3662
sS'STATES'
p3670
(lp3671
g3666
asS'I_VALS'
p3672
(dp3673
F6.3
g16
(g20
S'%^\xb1\xf7\xd5\xaa<?'
p3674
tp3675
Rp3676
sI37
g16
(g20
S'T&`3\xb0\x8dq?'
p3677
tp3678
Rp3679
ssS'ERROR_FLAGS'
p3680
(lp3681
ssS'53876_h.mod'
p3682
(dp3683
S'G_VALS'
p3684
(dp3685
S'gbar_h'
p3686
F0.00011
ssS'GATES'
p3687
(dp3688
S'n'
p3689
I1
ssS'SUFFIX'
p3690
S'h'
p3691
sS'GMAX_NAME'
p3692
g3686
sS'STATES'
p3693
(lp3694
g3689
asS'I_VALS'
p3695
(dp3696
F6.3
g16
(g20
S'h\xec`\xe9\x85\xa17?'
p3697
tp3698
Rp3699
sI37
g16
(g20
S'h\xec`\xe9\x85\xa17?'
p3700
tp3701
Rp3702
ssS'ERROR_FLAGS'
p3703
(lp3704
ssS'84589_hsoma.mod'
p3705
(dp3706
S'ERROR_FLAGS'
p3707
(lp3708
I1
assS'8284_hyperso.mod'
p3709
(dp3710
S'ERROR_FLAGS'
p3711
(lp3712
I7
assS'139656_Golgi_hcn2.mod'
p3713
(dp3714
S'ERROR_FLAGS'
p3715
(lp3716
I4
assS'139421_iholmw.mod'
p3717
(dp3718
S'ERROR_FLAGS'
p3719
(lp3720
I1
assS'127021_Golgi_hcn2.mod'
p3721
(dp3722
S'ERROR_FLAGS'
p3723
(lp3724
I4
assS'144450_h.mod'
p3725
(dp3726
S'G_VALS'
p3727
(dp3728
S'gbar_h'
p3729
F1.0
ssS'GATES'
p3730
(dp3731
S'n'
p3732
I1
ssS'SUFFIX'
p3733
S'h'
p3734
sS'GMAX_NAME'
p3735
g3729
sS'STATES'
p3736
(lp3737
g3732
asS'I_VALS'
p3738
(dp3739
F6.3
g16
(g20
S'\x1b\xf8\x9ba\x9d%\x12\xbd'
p3740
tp3741
Rp3742
sI37
g16
(g20
S'\x1b\xf8\x9ba\x9d%\x12\xbd'
p3743
tp3744
Rp3745
ssS'ERROR_FLAGS'
p3746
(lp3747
ssS'181967_hNa.mod'
p3748
(dp3749
S'G_VALS'
p3750
(dp3751
S'gbar_hNa'
p3752
F1.0
ssS'GATES'
p3753
(dp3754
S'n'
p3755
I1
ssS'SUFFIX'
p3756
S'hNa'
p3757
sS'GMAX_NAME'
p3758
g3752
sS'STATES'
p3759
(lp3760
g3755
asS'I_VALS'
p3761
(dp3762
F6.3
g16
(g20
S'\xfcx\xc2\xa5T\x1an?'
p3763
tp3764
Rp3765
sI37
g16
(g20
S'\xfcx\xc2\xa5T\x1an?'
p3766
tp3767
Rp3768
ssS'ERROR_FLAGS'
p3769
(lp3770
ssS'2937_iq.mod'
p3771
(dp3772
S'G_VALS'
p3773
(dp3774
S'gqbar_q'
p3775
F0.003
ssS'GATES'
p3776
(dp3777
S'q'
p3778
I1
ssS'SUFFIX'
p3779
g3778
sS'GMAX_NAME'
p3780
g3775
sS'STATES'
p3781
(lp3782
g3778
asS'I_VALS'
p3783
(dp3784
F6.3
g16
(g20
S'\xe5\xad\x0f4;a\x84?'
p3785
tp3786
Rp3787
sI37
g16
(g20
S'\xfb\xab\xaf\xbfR\xb5\x84?'
p3788
tp3789
Rp3790
ssS'ERROR_FLAGS'
p3791
(lp3792
ssS'87535_h.mod'
p3793
(dp3794
S'G_VALS'
p3795
(dp3796
S'ghdbar_hd'
p3797
F0.0001
ssS'GATES'
p3798
(dp3799
S'l'
p3800
I1
ssS'SUFFIX'
p3801
S'hd'
p3802
sS'GMAX_NAME'
p3803
g3797
sS'STATES'
p3804
(lp3805
g3800
asS'I_VALS'
p3806
(dp3807
F6.3
g16
(g20
S'F\xf9\xc3*\xcc\xe35?'
p3808
tp3809
Rp3810
sI37
g16
(g20
S'\xd0\x91\x86\x9c\xb2\xe35?'
p3811
tp3812
Rp3813
ssS'ERROR_FLAGS'
p3814
(lp3815
ssS'154732_h.mod'
p3816
(dp3817
S'G_VALS'
p3818
(dp3819
S'ghdbar_hd'
p3820
F0.0001
ssS'GATES'
p3821
(dp3822
S'l'
p3823
I1
ssS'SUFFIX'
p3824
S'hd'
p3825
sS'GMAX_NAME'
p3826
g3820
sS'STATES'
p3827
(lp3828
g3823
asS'I_VALS'
p3829
(dp3830
F6.3
g16
(g20
S'F\xf9\xc3*\xcc\xe35?'
p3831
tp3832
Rp3833
sI37
g16
(g20
S'\xd0\x91\x86\x9c\xb2\xe35?'
p3834
tp3835
Rp3836
ssS'ERROR_FLAGS'
p3837
(lp3838
ssS'143671_ghchan.mod'
p3839
(dp3840
S'G_VALS'
p3841
(dp3842
S'ghbar_gh'
p3843
F0.001
ssS'GATES'
p3844
(dp3845
S'n'
p3846
I1
ssS'SUFFIX'
p3847
S'gh'
p3848
sS'GMAX_NAME'
p3849
g3843
sS'STATES'
p3850
(lp3851
g3846
asS'I_VALS'
p3852
(dp3853
F6.3
g16
(g20
S'Q\x01c\xa2,\x8ds?'
p3854
tp3855
Rp3856
sI37
g16
(g20
S'Q\x01c\xa2,\x8ds?'
p3857
tp3858
Rp3859
ssS'ERROR_FLAGS'
p3860
(lp3861
ssS'112685_Golgi_hcn1.mod'
p3862
(dp3863
S'ERROR_FLAGS'
p3864
(lp3865
I4
assS'105385_hcn2_gp.mod'
p3866
(dp3867
S'ERROR_FLAGS'
p3868
(lp3869
I4
assS'184148_Ih.mod'
p3870
(dp3871
S'G_VALS'
p3872
(dp3873
S'gbar_Ih'
p3874
F1e-05
ssS'GATES'
p3875
(dp3876
S'm'
p3877
I1
ssS'SUFFIX'
p3878
S'Ih'
p3879
sS'GMAX_NAME'
p3880
g3874
sS'STATES'
p3881
(lp3882
g3877
asS'I_VALS'
p3883
(dp3884
F6.3
g16
(g20
S'\xa1+\xdfv)\x0b\x01?'
p3885
tp3886
Rp3887
sI37
g16
(g20
S'\xa1+\xdfv)\x0b\x01?'
p3888
tp3889
Rp3890
ssS'ERROR_FLAGS'
p3891
(lp3892
ssS'136095_H.mod'
p3893
(dp3894
S'G_VALS'
p3895
(dp3896
S'gmax_H'
p3897
F5e-07
ssS'GATES'
p3898
(dp3899
S'm'
p3900
I1
ssS'SUFFIX'
p3901
S'H'
p3902
sS'GMAX_NAME'
p3903
g3897
sS'STATES'
p3904
(lp3905
g3900
asS'I_VALS'
p3906
(dp3907
F6.3
g16
(g20
S'\xa5VA\xda\x97E\xbb>'
p3908
tp3909
Rp3910
sI37
g16
(g20
S'\xa5VA\xda\x97E\xbb>'
p3911
tp3912
Rp3913
ssS'ERROR_FLAGS'
p3914
(lp3915
ssS'184352_Ih.mod'
p3916
(dp3917
S'G_VALS'
p3918
(dp3919
S'gbar_Ih'
p3920
F1e-05
ssS'GATES'
p3921
(dp3922
S'm'
p3923
I1
ssS'SUFFIX'
p3924
S'Ih'
p3925
sS'GMAX_NAME'
p3926
g3920
sS'STATES'
p3927
(lp3928
g3923
asS'I_VALS'
p3929
(dp3930
F6.3
g16
(g20
S'\xa1+\xdfv)\x0b\x01?'
p3931
tp3932
Rp3933
sI37
g16
(g20
S'\xa1+\xdfv)\x0b\x01?'
p3934
tp3935
Rp3936
ssS'ERROR_FLAGS'
p3937
(lp3938
ssS'64170_ih.mod'
p3939
(dp3940
S'G_VALS'
p3941
(dp3942
S'gbar_h'
p3943
F8.0
ssS'GATES'
p3944
(dp3945
S'hh'
p3946
I1
ssS'SUFFIX'
p3947
S'h'
p3948
sS'GMAX_NAME'
p3949
g3943
sS'STATES'
p3950
(lp3951
g3946
asS'I_VALS'
p3952
(dp3953
F6.3
g16
(g20
S'\x1d\xa1K\xbf\x82\xabe?'
p3954
tp3955
Rp3956
sI37
g16
(g20
S"?\xc7'e\xf3\xe3e?"
p3957
tp3958
Rp3959
ssS'ERROR_FLAGS'
p3960
(lp3961
ssS'112359_IhDA.mod'
p3962
(dp3963
S'G_VALS'
p3964
(dp3965
S'ghdbar_hd'
p3966
F0.001
ssS'GATES'
p3967
(dp3968
S'l'
p3969
I1
ssS'SUFFIX'
p3970
S'hd'
p3971
sS'GMAX_NAME'
p3972
g3966
sS'STATES'
p3973
(lp3974
g3969
asS'I_VALS'
p3975
(dp3976
F6.3
g16
(g20
S'\xee\x8cIp\xd9\x17l?'
p3977
tp3978
Rp3979
sI37
g16
(g20
S'\xee\x8cIp\xd9\x17l?'
p3980
tp3981
Rp3982
ssS'ERROR_FLAGS'
p3983
(lp3984
ssS'98005_hcn2_ch.mod'
p3985
(dp3986
S'ERROR_FLAGS'
p3987
(lp3988
I4
assS'116983_h.mod'
p3989
(dp3990
S'G_VALS'
p3991
(dp3992
S'ghdbar_hd'
p3993
F0.0001
ssS'GATES'
p3994
(dp3995
S'l'
p3996
I1
ssS'SUFFIX'
p3997
S'hd'
p3998
sS'GMAX_NAME'
p3999
g3993
sS'STATES'
p4000
(lp4001
g3996
asS'I_VALS'
p4002
(dp4003
F6.3
g16
(g20
S'\xfe\xb9\x8b\xe8z\x8c5?'
p4004
tp4005
Rp4006
sI37
g16
(g20
S'aV\xceGx\x8c5?'
p4007
tp4008
Rp4009
ssS'ERROR_FLAGS'
p4010
(lp4011
ssS'184303_Ih.mod'
p4012
(dp4013
S'G_VALS'
p4014
(dp4015
S'gbar_Ih'
p4016
F1e-05
ssS'GATES'
p4017
(dp4018
S'm'
p4019
I1
ssS'SUFFIX'
p4020
S'Ih'
p4021
sS'GMAX_NAME'
p4022
g4016
sS'STATES'
p4023
(lp4024
g4019
asS'I_VALS'
p4025
(dp4026
F6.3
g16
(g20
S'\xa1+\xdfv)\x0b\x01?'
p4027
tp4028
Rp4029
sI37
g16
(g20
S'\xa1+\xdfv)\x0b\x01?'
p4030
tp4031
Rp4032
ssS'ERROR_FLAGS'
p4033
(lp4034
ssS'19696_h.mod'
p4035
(dp4036
S'G_VALS'
p4037
(dp4038
S'ghdbar_hd'
p4039
F0.0001
ssS'GATES'
p4040
(dp4041
S'l'
p4042
I1
ssS'SUFFIX'
p4043
S'hd'
p4044
sS'GMAX_NAME'
p4045
g4039
sS'STATES'
p4046
(lp4047
g4042
asS'I_VALS'
p4048
(dp4049
F6.3
g16
(g20
S'\xf3\xf7\x03-\xae_5?'
p4050
tp4051
Rp4052
sI37
g16
(g20
S'\xa6\xb8,g6i5?'
p4053
tp4054
Rp4055
ssS'ERROR_FLAGS'
p4056
(lp4057
ssS'126776_h.mod'
p4058
(dp4059
S'G_VALS'
p4060
(dp4061
S'ghdbar_hd'
p4062
F0.0001
ssS'GATES'
p4063
(dp4064
S'l'
p4065
I1
ssS'SUFFIX'
p4066
S'hd'
p4067
sS'GMAX_NAME'
p4068
g4062
sS'STATES'
p4069
(lp4070
g4065
asS'I_VALS'
p4071
(dp4072
F6.3
g16
(g20
S'\x9a\xf5rL\xcc\xe35?'
p4073
tp4074
Rp4075
sI37
g16
(g20
S'\x00\x92\xef\xb2\xbf\xe35?'
p4076
tp4077
Rp4078
ssS'ERROR_FLAGS'
p4079
(lp4080
ssS'98005_hcn12_ch.mod'
p4081
(dp4082
S'ERROR_FLAGS'
p4083
(lp4084
I4
assS'123815_h.mod'
p4085
(dp4086
S'G_VALS'
p4087
(dp4088
S'ghdbar_h'
p4089
F0.0001
ssS'GATES'
p4090
(dp4091
S'l'
p4092
I1
ssS'SUFFIX'
p4093
S'h'
p4094
sS'GMAX_NAME'
p4095
g4089
sS'STATES'
p4096
(lp4097
g4092
asS'I_VALS'
p4098
(dp4099
F6.3
g16
(g20
S'F\xf9\xc3*\xcc\xe35?'
p4100
tp4101
Rp4102
sI37
g16
(g20
S'\xd0\x91\x86\x9c\xb2\xe35?'
p4103
tp4104
Rp4105
ssS'ERROR_FLAGS'
p4106
(lp4107
ssS'32992_h.mod'
p4108
(dp4109
S'G_VALS'
p4110
(dp4111
S'ghdbar_hd'
p4112
F0.0001
ssS'GATES'
p4113
(dp4114
S'l'
p4115
I1
ssS'SUFFIX'
p4116
S'hd'
p4117
sS'GMAX_NAME'
p4118
g4112
sS'STATES'
p4119
(lp4120
g4115
asS'I_VALS'
p4121
(dp4122
F6.3
g16
(g20
S'F\xf9\xc3*\xcc\xe35?'
p4123
tp4124
Rp4125
sI37
g16
(g20
S'\xd0\x91\x86\x9c\xb2\xe35?'
p4126
tp4127
Rp4128
ssS'ERROR_FLAGS'
p4129
(lp4130
ssS'180789_hpkj.mod'
p4131
(dp4132
S'G_VALS'
p4133
(dp4134
S'ghbar_hpkj'
p4135
F0.0001
ssS'GATES'
p4136
(dp4137
S'n'
p4138
I1
ssS'SUFFIX'
p4139
S'hpkj'
p4140
sS'GMAX_NAME'
p4141
g4135
sS'STATES'
p4142
(lp4143
g4138
asS'I_VALS'
p4144
(dp4145
F6.3
g16
(g20
S'Tx\x19\xc1\x85\xa85?'
p4146
tp4147
Rp4148
sI37
g16
(g20
S'Tx\x19\xc1\x85\xa85?'
p4149
tp4150
Rp4151
ssS'ERROR_FLAGS'
p4152
(lp4153
ss.