(dp0
S'114637_ical.mod'
p1
(dp2
S'G_VALS'
p3
(dp4
S'gcabar_icalnew'
p5
F0.0006
ssS'GATES'
p6
(dp7
S'm'
p8
I2
ssS'SUFFIX'
p9
S'icalnew'
p10
sS'GMAX_NAME'
p11
g5
sS'STATES'
p12
(lp13
g8
asS'I_VALS'
p14
(dp15
F6.3
cnumpy.core.multiarray
scalar
p16
(cnumpy
dtype
p17
(S'f8'
p18
I0
I1
tp19
Rp20
(I3
S'<'
p21
NNNI-1
I-1
I0
tp22
bS'\x07\x0cM\x92c\xa8C?'
p23
tp24
Rp25
sI37
g16
(g20
S'\x07\x0cM\x92c\xa8C?'
p26
tp27
Rp28
ssS'ERROR_FLAGS'
p29
(lp30
ssS'155735_cap2.mod'
p31
(dp32
S'ERROR_FLAGS'
p33
(lp34
I5
assS'53451_ca.mod'
p35
(dp36
S'G_VALS'
p37
(dp38
S'gbar_ca'
p39
F0.1
ssS'GATES'
p40
(dp41
S'h'
p42
I1
sS'm'
p43
I2
ssS'SUFFIX'
p44
S'ca'
p45
sS'GMAX_NAME'
p46
g39
sS'STATES'
p47
(lp48
g43
ag42
asS'I_VALS'
p49
(dp50
F6.3
g16
(g20
S'x3\xb4z\xba\xdf\xc4>'
p51
tp52
Rp53
sI37
g16
(g20
S'N\xc6\xbf\x0e\x89\xd3\x00?'
p54
tp55
Rp56
ssS'ERROR_FLAGS'
p57
(lp58
ssS'124043_SlowCa.mod'
p59
(dp60
S'G_VALS'
p61
(dp62
S'gbar_sca'
p63
F0.1
ssS'GATES'
p64
(dp65
S'h'
p66
I1
sS'm'
p67
I2
ssS'SUFFIX'
p68
S'sca'
p69
sS'GMAX_NAME'
p70
g63
sS'STATES'
p71
(lp72
g67
ag66
asS'I_VALS'
p73
(dp74
F6.3
g16
(g20
S'{3\xb4z\xba\xdf\xc4>'
p75
tp76
Rp77
sI37
g16
(g20
S'@\xc6\xbf\x0e\x89\xd3\x00?'
p78
tp79
Rp80
ssS'ERROR_FLAGS'
p81
(lp82
ssS'184148_Ca_LVA.mod'
p83
(dp84
S'G_VALS'
p85
(dp86
S'gbar_Ca_LVA'
p87
F1e-05
ssS'GATES'
p88
(dp89
S'h'
p90
I1
sS'm'
p91
I2
ssS'SUFFIX'
p92
S'Ca_LVA'
p93
sS'GMAX_NAME'
p94
g87
sS'STATES'
p95
(lp96
g91
ag90
asS'I_VALS'
p97
(dp98
F6.3
g16
(g20
S'%\x90\xe3\x88\xb5\xf8\xe4>'
p99
tp100
Rp101
sI37
g16
(g20
S'\xc6\xb6\xe0\x88\xb5\xf8\xe4>'
p102
tp103
Rp104
ssS'ERROR_FLAGS'
p105
(lp106
ssS'20212_cal_v2.mod'
p107
(dp108
S'ERROR_FLAGS'
p109
(lp110
I5
assS'53876_lva.mod'
p111
(dp112
S'ERROR_FLAGS'
p113
(lp114
I4
assS'181967_nca.mod'
p115
(dp116
S'G_VALS'
p117
(dp118
S'gncabar_nca'
p119
F1.0
ssS'GATES'
p120
(dp121
S'c'
p122
I2
sS'd'
p123
I1
ssS'SUFFIX'
p124
S'nca'
p125
sS'GMAX_NAME'
p126
g119
sS'STATES'
p127
(lp128
g122
ag123
asS'I_VALS'
p129
(dp130
F6.3
g16
(g20
S']\xbd\x04\xcf\xd4\xff\xef?'
p131
tp132
Rp133
sI37
g16
(g20
S'Q\xf9;\x8c\xa5\xff\xef?'
p134
tp135
Rp136
ssS'ERROR_FLAGS'
p137
(lp138
ssS'53569_CaT.mod'
p139
(dp140
S'G_VALS'
p141
(dp142
S'gcabar_CaT'
p143
F3e-05
ssS'GATES'
p144
(dp145
S'h'
p146
I1
sS'm'
p147
I2
ssS'SUFFIX'
p148
S'CaT'
p149
sS'GMAX_NAME'
p150
g143
sS'STATES'
p151
(lp152
g147
ag146
asS'I_VALS'
p153
(dp154
F6.3
g16
(g20
S'4p\xcc\xb7\x13u\xff>'
p155
tp156
Rp157
sI37
g16
(g20
S'\xcc.=\xd1\x13u\xff>'
p158
tp159
Rp160
ssS'ERROR_FLAGS'
p161
(lp162
ssS'155602_LcaMig.mod'
p163
(dp164
S'G_VALS'
p165
(dp166
S'glcabar_lca'
p167
F1.0
ssS'GATES'
p168
(dp169
S'm'
p170
I2
ssS'SUFFIX'
p171
S'lca'
p172
sS'GMAX_NAME'
p173
g167
sS'STATES'
p174
(lp175
g170
asS'I_VALS'
p176
(dp177
F6.3
g16
(g20
S'\xd3\xdc\xe9rm\xa9\xd4?'
p178
tp179
Rp180
sI37
g16
(g20
S'vY\x1b\x07\xcbQ\xd3?'
p181
tp182
Rp183
ssS'ERROR_FLAGS'
p184
(lp185
ssS'123927_CAR.mod'
p186
(dp187
S'ERROR_FLAGS'
p188
(lp189
I5
assS'184184_Ca_LVA.mod'
p190
(dp191
S'G_VALS'
p192
(dp193
S'gbar_Ca_LVA'
p194
F1e-05
ssS'GATES'
p195
(dp196
S'h'
p197
I1
sS'm'
p198
I2
ssS'SUFFIX'
p199
S'Ca_LVA'
p200
sS'GMAX_NAME'
p201
g194
sS'STATES'
p202
(lp203
g198
ag197
asS'I_VALS'
p204
(dp205
F6.3
g16
(g20
S'%\x90\xe3\x88\xb5\xf8\xe4>'
p206
tp207
Rp208
sI37
g16
(g20
S'\xc6\xb6\xe0\x88\xb5\xf8\xe4>'
p209
tp210
Rp211
ssS'ERROR_FLAGS'
p212
(lp213
ssS'46839_grc_ca.mod'
p214
(dp215
S'G_VALS'
p216
(dp217
S'gcabar_GrC_CaHVA'
p218
F0.00046
ssS'GATES'
p219
(dp220
S's'
p221
I2
sS'u'
p222
I1
ssS'SUFFIX'
p223
S'GrC_CaHVA'
p224
sS'GMAX_NAME'
p225
g218
sS'STATES'
p226
(lp227
g221
ag222
asS'I_VALS'
p228
(dp229
F6.3
g16
(g20
S'ZYs\xee\x84%>?'
p230
tp231
Rp232
sI37
g16
(g20
S'\x96\x1b\xc7\xad\x84%>?'
p233
tp234
Rp235
ssS'ERROR_FLAGS'
p236
(lp237
ssS'17664_CaE.mod'
p238
(dp239
S'G_VALS'
p240
(dp241
S'gcabar_CaE'
p242
F0.0005
ssS'GATES'
p243
(dp244
S'h'
p245
I1
sS'm'
p246
I1
ssS'SUFFIX'
p247
S'CaE'
p248
sS'GMAX_NAME'
p249
g242
sS'STATES'
p250
(lp251
g246
ag245
asS'I_VALS'
p252
(dp253
F6.3
g16
(g20
S'\xe14\xa1\xe3Mb@?'
p254
tp255
Rp256
sI37
g16
(g20
S'I\xbd\xea\xcfMb@?'
p257
tp258
Rp259
ssS'ERROR_FLAGS'
p260
(lp261
ssS'121060_chan_CaL13.mod'
p262
(dp263
S'ERROR_FLAGS'
p264
(lp265
I5
assS'151460_CaT.mod'
p266
(dp267
S'ERROR_FLAGS'
p268
(lp269
I1
assS'135902_icapr.mod'
p270
(dp271
S'ERROR_FLAGS'
p272
(lp273
I1
assS'80769_CaP.mod'
p274
(dp275
S'ERROR_FLAGS'
p276
(lp277
I5
assS'127388_pGPeA.mod'
p278
(dp279
S'ERROR_FLAGS'
p280
(lp281
I7
assS'124063_Bip_Ca.mod'
p282
(dp283
S'ERROR_FLAGS'
p284
(lp285
I7
assS'169457_Ca_LVAst.mod'
p286
(dp287
S'G_VALS'
p288
(dp289
S'gCa_LVAstbar_Ca_LVAst'
p290
F1e-05
ssS'GATES'
p291
(dp292
S'h'
p293
I1
sS'm'
p294
I2
ssS'SUFFIX'
p295
S'Ca_LVAst'
p296
sS'GMAX_NAME'
p297
g290
sS'STATES'
p298
(lp299
g294
ag293
asS'I_VALS'
p300
(dp301
F6.3
g16
(g20
S'\x16[\xe1\x88\xb5\xf8\xe4>'
p302
tp303
Rp304
sI37
g16
(g20
S'\x16[\xe1\x88\xb5\xf8\xe4>'
p305
tp306
Rp307
ssS'ERROR_FLAGS'
p308
(lp309
ssS'135903_icapr.mod'
p310
(dp311
S'ERROR_FLAGS'
p312
(lp313
I1
assS'144450_can.mod'
p314
(dp315
S'ERROR_FLAGS'
p316
(lp317
I4
assS'97917_LcaMig.mod'
p318
(dp319
S'G_VALS'
p320
(dp321
S'glcabar_lca'
p322
F1.0
ssS'GATES'
p323
(dp324
S'm'
p325
I2
ssS'SUFFIX'
p326
S'lca'
p327
sS'GMAX_NAME'
p328
g322
sS'STATES'
p329
(lp330
g325
asS'I_VALS'
p331
(dp332
F6.3
g16
(g20
S'\xd3\xdc\xe9rm\xa9\xd4?'
p333
tp334
Rp335
sI37
g16
(g20
S'vY\x1b\x07\xcbQ\xd3?'
p336
tp337
Rp338
ssS'ERROR_FLAGS'
p339
(lp340
ssS'184352_Ca_HVA.mod'
p341
(dp342
S'G_VALS'
p343
(dp344
S'gbar_Ca_HVA'
p345
F1e-05
ssS'GATES'
p346
(dp347
S'h'
p348
I1
sS'm'
p349
I2
ssS'SUFFIX'
p350
S'Ca_HVA'
p351
sS'GMAX_NAME'
p352
g345
sS'STATES'
p353
(lp354
g349
ag348
asS'I_VALS'
p355
(dp356
F6.3
g16
(g20
S'\x1dT\xe3\x88\xb5\xf8\xe4>'
p357
tp358
Rp359
sI37
g16
(g20
S'\x1dT\xe3\x88\xb5\xf8\xe4>'
p360
tp361
Rp362
ssS'ERROR_FLAGS'
p363
(lp364
ssS'64229_catRT03.mod'
p365
(dp366
S'ERROR_FLAGS'
p367
(lp368
I1
assS'82849_hva.mod'
p369
(dp370
S'G_VALS'
p371
(dp372
S'ghvabar_Hva'
p373
F0.00034
ssS'GATES'
p374
(dp375
S'z'
p376
I1
sS'u'
p377
I2
ssS'SUFFIX'
p378
S'Hva'
p379
sS'GMAX_NAME'
p380
g373
sS'STATES'
p381
(lp382
g377
ag376
asS'I_VALS'
p383
(dp384
F6.3
g16
(g20
S'\xe7\xf3\xb4\xf6\xf9\xd86?'
p385
tp386
Rp387
sI37
g16
(g20
S'\xcc3t\xe9\x16L5?'
p388
tp389
Rp390
ssS'ERROR_FLAGS'
p391
(lp392
ssS'112834_car.mod'
p393
(dp394
S'ERROR_FLAGS'
p395
(lp396
I5
assS'121600_il.mod'
p397
(dp398
S'ERROR_FLAGS'
p399
(lp400
I5
assS'137259_cat.mod'
p401
(dp402
S'G_VALS'
p403
(dp404
S'gcatbar_cat'
p405
F0.003
ssS'GATES'
p406
(dp407
S'h'
p408
I1
sS'm'
p409
I2
ssS'SUFFIX'
p410
S'cat'
p411
sS'GMAX_NAME'
p412
g405
sS'STATES'
p413
(lp414
g409
ag408
asS'I_VALS'
p415
(dp416
F6.3
g16
(g20
S'\xda\xf5\r\xd3\xe2\xa7P?'
p417
tp418
Rp419
sI37
g16
(g20
S'u1\x13\x8f\xb2%O?'
p420
tp421
Rp422
ssS'ERROR_FLAGS'
p423
(lp424
ssS'18198_caL3d.mod'
p425
(dp426
S'ERROR_FLAGS'
p427
(lp428
I5
assS'147757_somacar.mod'
p429
(dp430
S'G_VALS'
p431
(dp432
S'gcabar_somacar'
p433
F1.0
ssS'GATES'
p434
(dp435
S'h'
p436
I1
sS'm'
p437
I3
ssS'SUFFIX'
p438
S'somacar'
p439
sS'GMAX_NAME'
p440
g433
sS'STATES'
p441
(lp442
g437
ag436
asS'I_VALS'
p443
(dp444
F6.3
g16
(g20
S'\x8f\xef%\xac\x8f\xfd\xef?'
p445
tp446
Rp447
sI37
g16
(g20
S'\x8f\xef%\xac\x8f\xfd\xef?'
p448
tp449
Rp450
ssS'ERROR_FLAGS'
p451
(lp452
ssS'184325_Ca_HVA.mod'
p453
(dp454
S'G_VALS'
p455
(dp456
S'gbar_Ca_HVA'
p457
F1e-05
ssS'GATES'
p458
(dp459
S'h'
p460
I1
sS'm'
p461
I2
ssS'SUFFIX'
p462
S'Ca_HVA'
p463
sS'GMAX_NAME'
p464
g457
sS'STATES'
p465
(lp466
g461
ag460
asS'I_VALS'
p467
(dp468
F6.3
g16
(g20
S'\x1dT\xe3\x88\xb5\xf8\xe4>'
p469
tp470
Rp471
sI37
g16
(g20
S'\x1dT\xe3\x88\xb5\xf8\xe4>'
p472
tp473
Rp474
ssS'ERROR_FLAGS'
p475
(lp476
ssS'153280_ch_CavN.mod'
p477
(dp478
S'G_VALS'
p479
(dp480
S'gmax_ch_CavN'
p481
F1.0
ssS'GATES'
p482
(dp483
S'c'
p484
I2
sS'd'
p485
I1
ssS'SUFFIX'
p486
S'ch_CavN'
p487
sS'GMAX_NAME'
p488
g481
sS'STATES'
p489
(lp490
g484
ag485
asS'I_VALS'
p491
(dp492
F6.3
g16
(g20
S'\xccm\x8c\x84\xfc\xff\xef?'
p493
tp494
Rp495
sI37
g16
(g20
S'q\x13\t\xd1\xa7\xff\xef?'
p496
tp497
Rp498
ssS'ERROR_FLAGS'
p499
(lp500
ssS'146565_ca.mod'
p501
(dp502
S'G_VALS'
p503
(dp504
S'gbar_cah'
p505
F0.1
ssS'GATES'
p506
(dp507
S'h'
p508
I1
sS'm'
p509
I2
ssS'SUFFIX'
p510
S'cah'
p511
sS'GMAX_NAME'
p512
g505
sS'STATES'
p513
(lp514
g509
ag508
asS'I_VALS'
p515
(dp516
F6.3
g16
(g20
S'N\xc6\xbf\x0e\x89\xd3\x00?'
p517
tp518
Rp519
sI37
g16
(g20
S'N\xc6\xbf\x0e\x89\xd3\x00?'
p520
tp521
Rp522
ssS'ERROR_FLAGS'
p523
(lp524
ssS'83547_calcha.mod'
p525
(dp526
S'ERROR_FLAGS'
p527
(lp528
I7
assS'2733_lcafixed.mod'
p529
(dp530
S'G_VALS'
p531
(dp532
S'gcabar_lcafixed'
p533
F0.12
ssS'GATES'
p534
(dp535
S's'
p536
I1
sS'r'
p537
I1
ssS'SUFFIX'
p538
S'lcafixed'
p539
sS'GMAX_NAME'
p540
g533
sS'STATES'
p541
(lp542
g537
ag536
asS'I_VALS'
p543
(dp544
F6.3
g16
(g20
S'\xb7\x03 ],\xb8\xbe?'
p545
tp546
Rp547
sI37
g16
(g20
S'\xb7\x03 ],\xb8\xbe?'
p548
tp549
Rp550
ssS'ERROR_FLAGS'
p551
(lp552
ssS'2730_lcafixed.mod'
p553
(dp554
S'G_VALS'
p555
(dp556
S'gcabar_lcafixed'
p557
F0.12
ssS'GATES'
p558
(dp559
S's'
p560
I1
sS'r'
p561
I1
ssS'SUFFIX'
p562
S'lcafixed'
p563
sS'GMAX_NAME'
p564
g557
sS'STATES'
p565
(lp566
g561
ag560
asS'I_VALS'
p567
(dp568
F6.3
g16
(g20
S'\xb7\x03 ],\xb8\xbe?'
p569
tp570
Rp571
sI37
g16
(g20
S'\xb7\x03 ],\xb8\xbe?'
p572
tp573
Rp574
ssS'ERROR_FLAGS'
p575
(lp576
ssS'184327_Ca_HVA.mod'
p577
(dp578
S'G_VALS'
p579
(dp580
S'gbar_Ca_HVA'
p581
F1e-05
ssS'GATES'
p582
(dp583
S'h'
p584
I1
sS'm'
p585
I2
ssS'SUFFIX'
p586
S'Ca_HVA'
p587
sS'GMAX_NAME'
p588
g581
sS'STATES'
p589
(lp590
g585
ag584
asS'I_VALS'
p591
(dp592
F6.3
g16
(g20
S'\x1dT\xe3\x88\xb5\xf8\xe4>'
p593
tp594
Rp595
sI37
g16
(g20
S'\x1dT\xe3\x88\xb5\xf8\xe4>'
p596
tp597
Rp598
ssS'ERROR_FLAGS'
p599
(lp600
ssS'184323_Ca_HVA.mod'
p601
(dp602
S'G_VALS'
p603
(dp604
S'gbar_Ca_HVA'
p605
F1e-05
ssS'GATES'
p606
(dp607
S'h'
p608
I1
sS'm'
p609
I2
ssS'SUFFIX'
p610
S'Ca_HVA'
p611
sS'GMAX_NAME'
p612
g605
sS'STATES'
p613
(lp614
g609
ag608
asS'I_VALS'
p615
(dp616
F6.3
g16
(g20
S'\x1dT\xe3\x88\xb5\xf8\xe4>'
p617
tp618
Rp619
sI37
g16
(g20
S'\x1dT\xe3\x88\xb5\xf8\xe4>'
p620
tp621
Rp622
ssS'ERROR_FLAGS'
p623
(lp624
ssS'144385_ca.mod'
p625
(dp626
S'G_VALS'
p627
(dp628
S'gbar_ca'
p629
F0.1
ssS'GATES'
p630
(dp631
S'h'
p632
I1
sS'm'
p633
I2
ssS'SUFFIX'
p634
S'ca'
p635
sS'GMAX_NAME'
p636
g629
sS'STATES'
p637
(lp638
g633
ag632
asS'I_VALS'
p639
(dp640
F6.3
g16
(g20
S'y3\xb4z\xba\xdf\xc4>'
p641
tp642
Rp643
sI37
g16
(g20
S'N\xc6\xbf\x0e\x89\xd3\x00?'
p644
tp645
Rp646
ssS'ERROR_FLAGS'
p647
(lp648
ssS'168874_can_mig.mod'
p649
(dp650
S'G_VALS'
p651
(dp652
S'gcanbar_can'
p653
F0.0003
ssS'GATES'
p654
(dp655
S'h'
p656
I2
sS'm'
p657
I2
ssS'SUFFIX'
p658
S'can'
p659
sS'GMAX_NAME'
p660
g653
sS'STATES'
p661
(lp662
g657
ag656
asS'I_VALS'
p663
(dp664
F6.3
g16
(g20
S'\x0e$\xa8R_\xa6\x1a?'
p665
tp666
Rp667
sI37
g16
(g20
S'\x07\xce\xb1\xdf%\xeb\x18?'
p668
tp669
Rp670
ssS'ERROR_FLAGS'
p671
(lp672
ssS'181967_cat2.mod'
p673
(dp674
S'G_VALS'
p675
(dp676
S'gcatbar_cat2'
p677
F0.003
ssS'GATES'
p678
(dp679
S'h'
p680
I1
sS'm'
p681
I2
ssS'SUFFIX'
p682
S'cat2'
p683
sS'GMAX_NAME'
p684
g677
sS'STATES'
p685
(lp686
g681
ag680
asS'I_VALS'
p687
(dp688
F6.3
g16
(g20
S'\xda\xf5\r\xd3\xe2\xa7P?'
p689
tp690
Rp691
sI37
g16
(g20
S'u1\x13\x8f\xb2%O?'
p692
tp693
Rp694
ssS'ERROR_FLAGS'
p695
(lp696
ssS'108459_it2.mod'
p697
(dp698
S'G_VALS'
p699
(dp700
S'gcabar_it2'
p701
F0.0008
ssS'GATES'
p702
(dp703
S'h'
p704
I1
sS'm'
p705
I2
ssS'SUFFIX'
p706
S'it2'
p707
sS'GMAX_NAME'
p708
g701
sS'STATES'
p709
(lp710
g705
ag704
asS'I_VALS'
p711
(dp712
F6.3
g16
(g20
S'\x03\xeb\xb4N\xe26J?'
p713
tp714
Rp715
sI37
g16
(g20
S'\x03\xeb\xb4N\xe26J?'
p716
tp717
Rp718
ssS'ERROR_FLAGS'
p719
(lp720
ssS'184145_Ca_HVA.mod'
p721
(dp722
S'G_VALS'
p723
(dp724
S'gbar_Ca_HVA'
p725
F1e-05
ssS'GATES'
p726
(dp727
S'h'
p728
I1
sS'm'
p729
I2
ssS'SUFFIX'
p730
S'Ca_HVA'
p731
sS'GMAX_NAME'
p732
g725
sS'STATES'
p733
(lp734
g729
ag728
asS'I_VALS'
p735
(dp736
F6.3
g16
(g20
S'\x1dT\xe3\x88\xb5\xf8\xe4>'
p737
tp738
Rp739
sI37
g16
(g20
S'\x1dT\xe3\x88\xb5\xf8\xe4>'
p740
tp741
Rp742
ssS'ERROR_FLAGS'
p743
(lp744
ssS'151458_can.mod'
p745
(dp746
S'ERROR_FLAGS'
p747
(lp748
I5
assS'20212_ourca_old.mod'
p749
(dp750
S'G_VALS'
p751
(dp752
S'gcabar_car'
p753
F1.0
ssS'GATES'
p754
(dp755
S'h'
p756
I1
sS'm'
p757
I3
ssS'SUFFIX'
p758
S'car'
p759
sS'GMAX_NAME'
p760
g753
sS'STATES'
p761
(lp762
g757
ag756
asS'I_VALS'
p763
(dp764
F6.3
g16
(g20
S'\x8a\x08\xb5?\x91\xfd\xef?'
p765
tp766
Rp767
sI37
g16
(g20
S'\x8a\x08\xb5?\x91\xfd\xef?'
p768
tp769
Rp770
ssS'ERROR_FLAGS'
p771
(lp772
ssS'184145_Ca_LVA.mod'
p773
(dp774
S'G_VALS'
p775
(dp776
S'gbar_Ca_LVA'
p777
F1e-05
ssS'GATES'
p778
(dp779
S'h'
p780
I1
sS'm'
p781
I2
ssS'SUFFIX'
p782
S'Ca_LVA'
p783
sS'GMAX_NAME'
p784
g777
sS'STATES'
p785
(lp786
g781
ag780
asS'I_VALS'
p787
(dp788
F6.3
g16
(g20
S'%\x90\xe3\x88\xb5\xf8\xe4>'
p789
tp790
Rp791
sI37
g16
(g20
S'\xc6\xb6\xe0\x88\xb5\xf8\xe4>'
p792
tp793
Rp794
ssS'ERROR_FLAGS'
p795
(lp796
ssS'143719_somacar.mod'
p797
(dp798
S'G_VALS'
p799
(dp800
S'gcabar_somacar'
p801
F1.0
ssS'GATES'
p802
(dp803
S'h'
p804
I1
sS'm'
p805
I3
ssS'SUFFIX'
p806
S'somacar'
p807
sS'GMAX_NAME'
p808
g801
sS'STATES'
p809
(lp810
g805
ag804
asS'I_VALS'
p811
(dp812
F6.3
g16
(g20
S'\x8f\xef%\xac\x8f\xfd\xef?'
p813
tp814
Rp815
sI37
g16
(g20
S'\x8f\xef%\xac\x8f\xfd\xef?'
p816
tp817
Rp818
ssS'ERROR_FLAGS'
p819
(lp820
ssS'150446_CaTraub1994.mod'
p821
(dp822
S'G_VALS'
p823
(dp824
S'gbar_Ca'
p825
F1.0
ssS'GATES'
p826
(dp827
S'm'
p828
I1
ssS'SUFFIX'
p829
S'Ca'
p830
sS'GMAX_NAME'
p831
g825
sS'STATES'
p832
(lp833
g828
asS'I_VALS'
p834
(dp835
F6.3
g16
(g20
S'\xfeE\x95w\xee4\xde?'
p836
tp837
Rp838
sI37
g16
(g20
S'\xfeE\x95w\xee4\xde?'
p839
tp840
Rp841
ssS'ERROR_FLAGS'
p842
(lp843
ssS'141273_ca.mod'
p844
(dp845
S'G_VALS'
p846
(dp847
S'gbar_ca'
p848
F0.1
ssS'GATES'
p849
(dp850
S'h'
p851
I1
sS'm'
p852
I2
ssS'SUFFIX'
p853
S'ca'
p854
sS'GMAX_NAME'
p855
g848
sS'STATES'
p856
(lp857
g852
ag851
asS'I_VALS'
p858
(dp859
F6.3
g16
(g20
S'y3\xb4z\xba\xdf\xc4>'
p860
tp861
Rp862
sI37
g16
(g20
S'N\xc6\xbf\x0e\x89\xd3\x00?'
p863
tp864
Rp865
ssS'ERROR_FLAGS'
p866
(lp867
ssS'123453_Cav2.mod'
p868
(dp869
S'ERROR_FLAGS'
p870
(lp871
I5
assS'144089_can.mod'
p872
(dp873
S'ERROR_FLAGS'
p874
(lp875
I4
assS'97917_tca.mod'
p876
(dp877
S'G_VALS'
p878
(dp879
S'gcatbar_cat'
p880
F0.003
ssS'GATES'
p881
(dp882
S'h'
p883
I1
sS'm'
p884
I2
ssS'SUFFIX'
p885
S'cat'
p886
sS'GMAX_NAME'
p887
g880
sS'STATES'
p888
(lp889
g884
ag883
asS'I_VALS'
p890
(dp891
F6.3
g16
(g20
S'\xd4\x86\xdd+\xdf\xa7P?'
p892
tp893
Rp894
sI37
g16
(g20
S'\x85\xf5\x8d\x9f\xac%O?'
p895
tp896
Rp897
ssS'ERROR_FLAGS'
p898
(lp899
ssS'113732_tchannel.mod'
p900
(dp901
S'ERROR_FLAGS'
p902
(lp903
I5
assS'97917_nca.mod'
p904
(dp905
S'G_VALS'
p906
(dp907
S'gncabar_nca'
p908
F1.0
ssS'GATES'
p909
(dp910
S'c'
p911
I2
sS'd'
p912
I1
ssS'SUFFIX'
p913
S'nca'
p914
sS'GMAX_NAME'
p915
g908
sS'STATES'
p916
(lp917
g911
ag912
asS'I_VALS'
p918
(dp919
F6.3
g16
(g20
S']\xbd\x04\xcf\xd4\xff\xef?'
p920
tp921
Rp922
sI37
g16
(g20
S'Q\xf9;\x8c\xa5\xff\xef?'
p923
tp924
Rp925
ssS'ERROR_FLAGS'
p926
(lp927
ssS'125385_sit2.mod'
p928
(dp929
S'ERROR_FLAGS'
p930
(lp931
I1
assS'139883_GRC_CA.mod'
p932
(dp933
S'G_VALS'
p934
(dp935
S'gcabar_GRC_CA'
p936
F0.00046
ssS'GATES'
p937
(dp938
S's'
p939
I2
sS'u'
p940
I1
ssS'SUFFIX'
p941
S'GRC_CA'
p942
sS'GMAX_NAME'
p943
g936
sS'STATES'
p944
(lp945
g939
ag940
asS'I_VALS'
p946
(dp947
F6.3
g16
(g20
S'sW\xd8\xee\x84%>?'
p948
tp949
Rp950
sI37
g16
(g20
S'W\xb1R\xb1\x84%>?'
p951
tp952
Rp953
ssS'ERROR_FLAGS'
p954
(lp955
ssS'97860_Ca.mod'
p956
(dp957
S'ERROR_FLAGS'
p958
(lp959
I3
assS'184350_Ca_LVA.mod'
p960
(dp961
S'G_VALS'
p962
(dp963
S'gbar_Ca_LVA'
p964
F1e-05
ssS'GATES'
p965
(dp966
S'h'
p967
I1
sS'm'
p968
I2
ssS'SUFFIX'
p969
S'Ca_LVA'
p970
sS'GMAX_NAME'
p971
g964
sS'STATES'
p972
(lp973
g968
ag967
asS'I_VALS'
p974
(dp975
F6.3
g16
(g20
S'%\x90\xe3\x88\xb5\xf8\xe4>'
p976
tp977
Rp978
sI37
g16
(g20
S'\xc6\xb6\xe0\x88\xb5\xf8\xe4>'
p979
tp980
Rp981
ssS'ERROR_FLAGS'
p982
(lp983
ssS'180789_cat.mod'
p984
(dp985
S'G_VALS'
p986
(dp987
S'gcabar_cat'
p988
F0.0005
ssS'GATES'
p989
(dp990
S'h'
p991
I1
sS'm'
p992
I1
ssS'SUFFIX'
p993
S'cat'
p994
sS'GMAX_NAME'
p995
g988
sS'STATES'
p996
(lp997
g992
ag991
asS'I_VALS'
p998
(dp999
F6.3
g16
(g20
S'\xdc\x0fQ:]\x04A?'
p1000
tp1001
Rp1002
sI37
g16
(g20
S'\x8a16N\x9e\xb8??'
p1003
tp1004
Rp1005
ssS'ERROR_FLAGS'
p1006
(lp1007
ssS'51196_grc_ca.mod'
p1008
(dp1009
S'G_VALS'
p1010
(dp1011
S'gcabar_GrC_CaHVA'
p1012
F0.00046
ssS'GATES'
p1013
(dp1014
S's'
p1015
I2
sS'u'
p1016
I1
ssS'SUFFIX'
p1017
S'GrC_CaHVA'
p1018
sS'GMAX_NAME'
p1019
g1012
sS'STATES'
p1020
(lp1021
g1015
ag1016
asS'I_VALS'
p1022
(dp1023
F6.3
g16
(g20
S'ZYs\xee\x84%>?'
p1024
tp1025
Rp1026
sI37
g16
(g20
S'\x96\x1b\xc7\xad\x84%>?'
p1027
tp1028
Rp1029
ssS'ERROR_FLAGS'
p1030
(lp1031
ssS'83344_SlowCa.mod'
p1032
(dp1033
S'G_VALS'
p1034
(dp1035
S'gbar_sca'
p1036
F0.1
ssS'GATES'
p1037
(dp1038
S'h'
p1039
I1
sS'm'
p1040
I2
ssS'SUFFIX'
p1041
S'sca'
p1042
sS'GMAX_NAME'
p1043
g1036
sS'STATES'
p1044
(lp1045
g1040
ag1039
asS'I_VALS'
p1046
(dp1047
F6.3
g16
(g20
S'{3\xb4z\xba\xdf\xc4>'
p1048
tp1049
Rp1050
sI37
g16
(g20
S'@\xc6\xbf\x0e\x89\xd3\x00?'
p1051
tp1052
Rp1053
ssS'ERROR_FLAGS'
p1054
(lp1055
ssS'84612_cachan.mod'
p1056
(dp1057
S'ERROR_FLAGS'
p1058
(lp1059
I7
assS'64195_ca.mod'
p1060
(dp1061
S'G_VALS'
p1062
(dp1063
S'gbar_ca'
p1064
F0.1
ssS'GATES'
p1065
(dp1066
S'h'
p1067
I1
sS'm'
p1068
I2
ssS'SUFFIX'
p1069
S'ca'
p1070
sS'GMAX_NAME'
p1071
g1064
sS'STATES'
p1072
(lp1073
g1068
ag1067
asS'I_VALS'
p1074
(dp1075
F6.3
g16
(g20
S'y3\xb4z\xba\xdf\xc4>'
p1076
tp1077
Rp1078
sI37
g16
(g20
S'N\xc6\xbf\x0e\x89\xd3\x00?'
p1079
tp1080
Rp1081
ssS'ERROR_FLAGS'
p1082
(lp1083
ssS'155735_CaP.mod'
p1084
(dp1085
S'G_VALS'
p1086
(dp1087
S'gcabar_CaP'
p1088
F0.0045
ssS'GATES'
p1089
(dp1090
S'h'
p1091
I1
sS'm'
p1092
I1
ssS'SUFFIX'
p1093
S'CaP'
p1094
sS'GMAX_NAME'
p1095
g1088
sS'STATES'
p1096
(lp1097
g1092
ag1091
asS'I_VALS'
p1098
(dp1099
F6.3
g16
(g20
S'\x06\xb9\x914\x8fnr?'
p1100
tp1101
Rp1102
sI37
g16
(g20
S'\xd7C\xe2\x99ynr?'
p1103
tp1104
Rp1105
ssS'ERROR_FLAGS'
p1106
(lp1107
ssS'126637_CaTcvode.mod'
p1108
(dp1109
S'G_VALS'
p1110
(dp1111
S'gcabar_CaTcvode'
p1112
F0.0005
ssS'GATES'
p1113
(dp1114
S'h'
p1115
I1
sS'm'
p1116
I1
ssS'SUFFIX'
p1117
S'CaTcvode'
p1118
sS'GMAX_NAME'
p1119
g1112
sS'STATES'
p1120
(lp1121
g1116
ag1115
asS'I_VALS'
p1122
(dp1123
F6.3
g16
(g20
S'\x87\x19\x1f\x81wa@?'
p1124
tp1125
Rp1126
sI37
g16
(g20
S'\x0f\xab\xba\xf1\x82a@?'
p1127
tp1128
Rp1129
ssS'ERROR_FLAGS'
p1130
(lp1131
ssS'149174_LcaMig.mod'
p1132
(dp1133
S'G_VALS'
p1134
(dp1135
S'glcabar_lca'
p1136
F1.0
ssS'GATES'
p1137
(dp1138
S'm'
p1139
I2
ssS'SUFFIX'
p1140
S'lca'
p1141
sS'GMAX_NAME'
p1142
g1136
sS'STATES'
p1143
(lp1144
g1139
asS'I_VALS'
p1145
(dp1146
F6.3
g16
(g20
S'\xd3\xdc\xe9rm\xa9\xd4?'
p1147
tp1148
Rp1149
sI37
g16
(g20
S'vY\x1b\x07\xcbQ\xd3?'
p1150
tp1151
Rp1152
ssS'ERROR_FLAGS'
p1153
(lp1154
ssS'50997_spike.mod'
p1155
(dp1156
S'ERROR_FLAGS'
p1157
(lp1158
I8
assS'116862_IT2.mod'
p1159
(dp1160
S'G_VALS'
p1161
(dp1162
S'gmax_itre'
p1163
F0.003
ssS'GATES'
p1164
(dp1165
S'h'
p1166
I1
sS'm'
p1167
I2
ssS'SUFFIX'
p1168
S'itre'
p1169
sS'GMAX_NAME'
p1170
g1163
sS'STATES'
p1171
(lp1172
g1167
ag1166
asS'I_VALS'
p1173
(dp1174
F6.3
g16
(g20
S'\x9e\x08\xd63t\x93h?'
p1175
tp1176
Rp1177
sI37
g16
(g20
S'<\x9dp\\h\x93h?'
p1178
tp1179
Rp1180
ssS'ERROR_FLAGS'
p1181
(lp1182
ssS'84589_cat.mod'
p1183
(dp1184
S'ERROR_FLAGS'
p1185
(lp1186
I1
assS'127388_pSTN_icgCA2.mod'
p1187
(dp1188
S'ERROR_FLAGS'
p1189
(lp1190
I4
assS'148094_cal2.mod'
p1191
(dp1192
S'G_VALS'
p1193
(dp1194
S'gcalbar_cal'
p1195
F0.003
ssS'GATES'
p1196
(dp1197
S'm'
p1198
I2
ssS'SUFFIX'
p1199
S'cal'
p1200
sS'GMAX_NAME'
p1201
g1195
sS'STATES'
p1202
(lp1203
g1198
asS'I_VALS'
p1204
(dp1205
F6.3
g16
(g20
S"\xa5'\xfd\xa1\x8f\xbcO?"
p1206
tp1207
Rp1208
sI37
g16
(g20
S"q'\xb8\x0f\xbd\xacM?"
p1209
tp1210
Rp1211
ssS'ERROR_FLAGS'
p1212
(lp1213
ssS'115356_CAT.mod'
p1214
(dp1215
S'ERROR_FLAGS'
p1216
(lp1217
I5
assS'150284_caL13.mod'
p1218
(dp1219
S'ERROR_FLAGS'
p1220
(lp1221
I5
assS'181967_LcaMig.mod'
p1222
(dp1223
S'G_VALS'
p1224
(dp1225
S'glcabar_lca'
p1226
F1.0
ssS'GATES'
p1227
(dp1228
S'm'
p1229
I2
ssS'SUFFIX'
p1230
S'lca'
p1231
sS'GMAX_NAME'
p1232
g1226
sS'STATES'
p1233
(lp1234
g1229
asS'I_VALS'
p1235
(dp1236
F6.3
g16
(g20
S'\xd3\xdc\xe9rm\xa9\xd4?'
p1237
tp1238
Rp1239
sI37
g16
(g20
S'vY\x1b\x07\xcbQ\xd3?'
p1240
tp1241
Rp1242
ssS'ERROR_FLAGS'
p1243
(lp1244
ssS'184168_Ca_LVA.mod'
p1245
(dp1246
S'G_VALS'
p1247
(dp1248
S'gbar_Ca_LVA'
p1249
F1e-05
ssS'GATES'
p1250
(dp1251
S'h'
p1252
I1
sS'm'
p1253
I2
ssS'SUFFIX'
p1254
S'Ca_LVA'
p1255
sS'GMAX_NAME'
p1256
g1249
sS'STATES'
p1257
(lp1258
g1253
ag1252
asS'I_VALS'
p1259
(dp1260
F6.3
g16
(g20
S'%\x90\xe3\x88\xb5\xf8\xe4>'
p1261
tp1262
Rp1263
sI37
g16
(g20
S'\xc6\xb6\xe0\x88\xb5\xf8\xe4>'
p1264
tp1265
Rp1266
ssS'ERROR_FLAGS'
p1267
(lp1268
ssS'181967_cal1.mod'
p1269
(dp1270
S'G_VALS'
p1271
(dp1272
S'gcalbar_cal1'
p1273
F0.003
ssS'GATES'
p1274
(dp1275
S'm'
p1276
I2
ssS'SUFFIX'
p1277
S'cal1'
p1278
sS'GMAX_NAME'
p1279
g1273
sS'STATES'
p1280
(lp1281
g1276
asS'I_VALS'
p1282
(dp1283
F6.3
g16
(g20
S'\xcc\x15\xfd\xa1\x8f\xbcO?'
p1284
tp1285
Rp1286
sI37
g16
(g20
S'/"\xb8\x0f\xbd\xacM?'
p1287
tp1288
Rp1289
ssS'ERROR_FLAGS'
p1290
(lp1291
ssS'53965_IT2_v3.mod'
p1292
(dp1293
S'G_VALS'
p1294
(dp1295
S'gcabar_it2'
p1296
F0.0008
ssS'GATES'
p1297
(dp1298
S'h'
p1299
I1
sS'm'
p1300
I2
ssS'SUFFIX'
p1301
S'it2'
p1302
sS'GMAX_NAME'
p1303
g1296
sS'STATES'
p1304
(lp1305
g1300
ag1299
asS'I_VALS'
p1306
(dp1307
F6.3
g16
(g20
S'\xbbv\xa0\x86\xdf6J?'
p1308
tp1309
Rp1310
sI37
g16
(g20
S'\xcf\xed\xe5"\xdf6J?'
p1311
tp1312
Rp1313
ssS'ERROR_FLAGS'
p1314
(lp1315
ssS'20212_it.mod'
p1316
(dp1317
S'G_VALS'
p1318
(dp1319
S'gcabar_it2'
p1320
F0.00175
ssS'GATES'
p1321
(dp1322
S'h'
p1323
I1
sS'm'
p1324
I2
ssS'SUFFIX'
p1325
S'it2'
p1326
sS'GMAX_NAME'
p1327
g1320
sS'STATES'
p1328
(lp1329
g1324
ag1323
asS'I_VALS'
p1330
(dp1331
F6.3
g16
(g20
S'e\xbb\\\x96\x0b\xac\\?'
p1332
tp1333
Rp1334
sI37
g16
(g20
S'\xc5\x07@N\x04\xac\\?'
p1335
tp1336
Rp1337
ssS'ERROR_FLAGS'
p1338
(lp1339
ssS'184182_Ca_LVA.mod'
p1340
(dp1341
S'G_VALS'
p1342
(dp1343
S'gbar_Ca_LVA'
p1344
F1e-05
ssS'GATES'
p1345
(dp1346
S'h'
p1347
I1
sS'm'
p1348
I2
ssS'SUFFIX'
p1349
S'Ca_LVA'
p1350
sS'GMAX_NAME'
p1351
g1344
sS'STATES'
p1352
(lp1353
g1348
ag1347
asS'I_VALS'
p1354
(dp1355
F6.3
g16
(g20
S'%\x90\xe3\x88\xb5\xf8\xe4>'
p1356
tp1357
Rp1358
sI37
g16
(g20
S'\xc6\xb6\xe0\x88\xb5\xf8\xe4>'
p1359
tp1360
Rp1361
ssS'ERROR_FLAGS'
p1362
(lp1363
ssS'147757_cal.mod'
p1364
(dp1365
S'G_VALS'
p1366
(dp1367
S'gcalbar_cal'
p1368
F1.0
ssS'GATES'
p1369
(dp1370
S'm'
p1371
I1
ssS'SUFFIX'
p1372
S'cal'
p1373
sS'GMAX_NAME'
p1374
g1368
sS'STATES'
p1375
(lp1376
g1371
asS'I_VALS'
p1377
(dp1378
F6.3
g16
(g20
S'0\x02q\xf4\x814\xd1?'
p1379
tp1380
Rp1381
sI37
g16
(g20
S'$\\>\xa2\xa8\x05\xd0?'
p1382
tp1383
Rp1384
ssS'ERROR_FLAGS'
p1385
(lp1386
ssS'3673_spike.mod'
p1387
(dp1388
S'ERROR_FLAGS'
p1389
(lp1390
I8
assS'146030_LCa3_mit_usb_ChannelML.mod'
p1391
(dp1392
S'G_VALS'
p1393
(dp1394
S'gmax_LCa3_mit_usb_ChannelML'
p1395
F0.012
ssS'GATES'
p1396
(dp1397
S'h'
p1398
I1
sS'm'
p1399
I1
ssS'SUFFIX'
p1400
S'LCa3_mit_usb_ChannelML'
p1401
sS'GMAX_NAME'
p1402
g1395
sS'STATES'
p1403
(lp1404
g1399
ag1398
asS'I_VALS'
p1405
(dp1406
F6.3
g16
(g20
S'-\x80\xb4\xf9q\x93\x88?'
p1407
tp1408
Rp1409
sI37
g16
(g20
S'-\x80\xb4\xf9q\x93\x88?'
p1410
tp1411
Rp1412
ssS'ERROR_FLAGS'
p1413
(lp1414
ssS'53893_lva.mod'
p1415
(dp1416
S'ERROR_FLAGS'
p1417
(lp1418
I4
assS'184316_Ca_HVA.mod'
p1419
(dp1420
S'G_VALS'
p1421
(dp1422
S'gbar_Ca_HVA'
p1423
F1e-05
ssS'GATES'
p1424
(dp1425
S'h'
p1426
I1
sS'm'
p1427
I2
ssS'SUFFIX'
p1428
S'Ca_HVA'
p1429
sS'GMAX_NAME'
p1430
g1423
sS'STATES'
p1431
(lp1432
g1427
ag1426
asS'I_VALS'
p1433
(dp1434
F6.3
g16
(g20
S'\x1dT\xe3\x88\xb5\xf8\xe4>'
p1435
tp1436
Rp1437
sI37
g16
(g20
S'\x1dT\xe3\x88\xb5\xf8\xe4>'
p1438
tp1439
Rp1440
ssS'ERROR_FLAGS'
p1441
(lp1442
ssS'97917_cat.mod'
p1443
(dp1444
S'G_VALS'
p1445
(dp1446
S'gbar_cat'
p1447
F1.0
ssS'GATES'
p1448
(dp1449
S'h'
p1450
I1
sS'm'
p1451
I2
ssS'SUFFIX'
p1452
S'cat'
p1453
sS'GMAX_NAME'
p1454
g1447
sS'STATES'
p1455
(lp1456
g1451
ag1450
asS'I_VALS'
p1457
(dp1458
F6.3
g16
(g20
S'\xbbe\xb9 \xe1\xfd\xef?'
p1459
tp1460
Rp1461
sI37
g16
(g20
S'\xbbe\xb9 \xe1\xfd\xef?'
p1462
tp1463
Rp1464
ssS'ERROR_FLAGS'
p1465
(lp1466
ssS'140249_ical.mod'
p1467
(dp1468
S'ERROR_FLAGS'
p1469
(lp1470
I5
assS'51781_tca.mod'
p1471
(dp1472
S'G_VALS'
p1473
(dp1474
S'gcatbar_cat'
p1475
F0.003
ssS'GATES'
p1476
(dp1477
S'h'
p1478
I1
sS'm'
p1479
I2
ssS'SUFFIX'
p1480
S'cat'
p1481
sS'GMAX_NAME'
p1482
g1475
sS'STATES'
p1483
(lp1484
g1479
ag1478
asS'I_VALS'
p1485
(dp1486
F6.3
g16
(g20
S'\xd4\x86\xdd+\xdf\xa7P?'
p1487
tp1488
Rp1489
sI37
g16
(g20
S'\x85\xf5\x8d\x9f\xac%O?'
p1490
tp1491
Rp1492
ssS'ERROR_FLAGS'
p1493
(lp1494
ssS'125152_CAl.mod'
p1495
(dp1496
S'ERROR_FLAGS'
p1497
(lp1498
I5
assS'125152_CAT.mod'
p1499
(dp1500
S'ERROR_FLAGS'
p1501
(lp1502
I5
assS'98017_ICa.mod'
p1503
(dp1504
S'ERROR_FLAGS'
p1505
(lp1506
I3
assS'184152_Ca_HVA.mod'
p1507
(dp1508
S'G_VALS'
p1509
(dp1510
S'gbar_Ca_HVA'
p1511
F1e-05
ssS'GATES'
p1512
(dp1513
S'h'
p1514
I1
sS'm'
p1515
I2
ssS'SUFFIX'
p1516
S'Ca_HVA'
p1517
sS'GMAX_NAME'
p1518
g1511
sS'STATES'
p1519
(lp1520
g1515
ag1514
asS'I_VALS'
p1521
(dp1522
F6.3
g16
(g20
S'\x1dT\xe3\x88\xb5\xf8\xe4>'
p1523
tp1524
Rp1525
sI37
g16
(g20
S'\x1dT\xe3\x88\xb5\xf8\xe4>'
p1526
tp1527
Rp1528
ssS'ERROR_FLAGS'
p1529
(lp1530
ssS'84589_car.mod'
p1531
(dp1532
S'ERROR_FLAGS'
p1533
(lp1534
I1
assS'3533_cat_thal.mod'
p1535
(dp1536
S'G_VALS'
p1537
(dp1538
S'gbar_cat'
p1539
F0.007
ssS'GATES'
p1540
(dp1541
S'h'
p1542
I1
sS'm'
p1543
I1
ssS'SUFFIX'
p1544
S'cat'
p1545
sS'GMAX_NAME'
p1546
g1539
sS'STATES'
p1547
(lp1548
g1543
ag1542
asS'I_VALS'
p1549
(dp1550
F6.3
g16
(g20
S'H5\xc7\xdd\x9a\x96\xe8>'
p1551
tp1552
Rp1553
sI37
g16
(g20
S'(\x93\xf4EL\xaf\xe8>'
p1554
tp1555
Rp1556
ssS'ERROR_FLAGS'
p1557
(lp1558
ssS'126637_CaP2.mod'
p1559
(dp1560
S'ERROR_FLAGS'
p1561
(lp1562
I4
assS'98005_cap_ch.mod'
p1563
(dp1564
S'G_VALS'
p1565
(dp1566
S'gbar_cap_ch'
p1567
F5e-05
ssS'GATES'
p1568
(dp1569
S'm'
p1570
I1
ssS'SUFFIX'
p1571
S'cap_ch'
p1572
sS'GMAX_NAME'
p1573
g1567
sS'STATES'
p1574
(lp1575
g1570
asS'I_VALS'
p1576
(dp1577
F6.3
g16
(g20
S'.\tr1\xf3\xe0@?'
p1578
tp1579
Rp1580
sI37
g16
(g20
S'-\x84\x81\x87\x90w??'
p1581
tp1582
Rp1583
ssS'ERROR_FLAGS'
p1584
(lp1585
ssS'9889_IT_wang.mod'
p1586
(dp1587
S'ERROR_FLAGS'
p1588
(lp1589
I4
assS'168858_cat.mod'
p1590
(dp1591
S'G_VALS'
p1592
(dp1593
S'gbar_cat'
p1594
F1.0
ssS'GATES'
p1595
(dp1596
S'h'
p1597
I1
sS'm'
p1598
I2
ssS'SUFFIX'
p1599
S'cat'
p1600
sS'GMAX_NAME'
p1601
g1594
sS'STATES'
p1602
(lp1603
g1598
ag1597
asS'I_VALS'
p1604
(dp1605
F6.3
g16
(g20
S'\xbbe\xb9 \xe1\xfd\xef?'
p1606
tp1607
Rp1608
sI37
g16
(g20
S'\xbbe\xb9 \xe1\xfd\xef?'
p1609
tp1610
Rp1611
ssS'ERROR_FLAGS'
p1612
(lp1613
ssS'168874_cat_mig.mod'
p1614
(dp1615
S'G_VALS'
p1616
(dp1617
S'gcatbar_cat'
p1618
F0.003
ssS'GATES'
p1619
(dp1620
S'h'
p1621
I1
sS'm'
p1622
I2
ssS'SUFFIX'
p1623
S'cat'
p1624
sS'GMAX_NAME'
p1625
g1618
sS'STATES'
p1626
(lp1627
g1622
ag1621
asS'I_VALS'
p1628
(dp1629
F6.3
g16
(g20
S'\x0b2\x7f\xce\xe2\xa7P?'
p1630
tp1631
Rp1632
sI37
g16
(g20
S'\\\x8b]\xa1\xb2%O?'
p1633
tp1634
Rp1635
ssS'ERROR_FLAGS'
p1636
(lp1637
ssS'126637_CaT.mod'
p1638
(dp1639
S'G_VALS'
p1640
(dp1641
S'gcabar_CaT'
p1642
F0.0005
ssS'GATES'
p1643
(dp1644
S'h'
p1645
I1
sS'm'
p1646
I1
ssS'SUFFIX'
p1647
S'CaT'
p1648
sS'GMAX_NAME'
p1649
g1642
sS'STATES'
p1650
(lp1651
g1646
ag1645
asS'I_VALS'
p1652
(dp1653
F6.3
g16
(g20
S'\xd6\x1b\xa2\xfdMb@?'
p1654
tp1655
Rp1656
sI37
g16
(g20
S'\xacX\xf1SMb@?'
p1657
tp1658
Rp1659
ssS'ERROR_FLAGS'
p1660
(lp1661
ssS'138382_CaT3_1.mod'
p1662
(dp1663
S'ERROR_FLAGS'
p1664
(lp1665
I5
assS'112546_cal2.mod'
p1666
(dp1667
S'G_VALS'
p1668
(dp1669
S'gcalbar_cal'
p1670
F0.003
ssS'GATES'
p1671
(dp1672
S'm'
p1673
I2
ssS'SUFFIX'
p1674
S'cal'
p1675
sS'GMAX_NAME'
p1676
g1670
sS'STATES'
p1677
(lp1678
g1673
asS'I_VALS'
p1679
(dp1680
F6.3
g16
(g20
S"\x87'\xfd\xa1\x8f\xbcO?"
p1681
tp1682
Rp1683
sI37
g16
(g20
S'V$\xb8\x0f\xbd\xacM?'
p1684
tp1685
Rp1686
ssS'ERROR_FLAGS'
p1687
(lp1688
ssS'97917_cal.mod'
p1689
(dp1690
S'G_VALS'
p1691
(dp1692
S'gbar_cal'
p1693
F1.0
ssS'GATES'
p1694
(dp1695
S'm'
p1696
I2
ssS'SUFFIX'
p1697
S'cal'
p1698
sS'GMAX_NAME'
p1699
g1693
sS'STATES'
p1700
(lp1701
g1696
asS'I_VALS'
p1702
(dp1703
F6.3
g16
(g20
S"\x92\xbd='\x9d\xfe\xef?"
p1704
tp1705
Rp1706
sI37
g16
(g20
S"\x92\xbd='\x9d\xfe\xef?"
p1707
tp1708
Rp1709
ssS'ERROR_FLAGS'
p1710
(lp1711
ssS'151126_cal.mod'
p1712
(dp1713
S'G_VALS'
p1714
(dp1715
S'gcalbar_cal'
p1716
F1.0
ssS'GATES'
p1717
(dp1718
S'm'
p1719
I1
ssS'SUFFIX'
p1720
S'cal'
p1721
sS'GMAX_NAME'
p1722
g1716
sS'STATES'
p1723
(lp1724
g1719
asS'I_VALS'
p1725
(dp1726
F6.3
g16
(g20
S'0\x02q\xf4\x814\xd1?'
p1727
tp1728
Rp1729
sI37
g16
(g20
S'$\\>\xa2\xa8\x05\xd0?'
p1730
tp1731
Rp1732
ssS'ERROR_FLAGS'
p1733
(lp1734
ssS'128559_iCaL.mod'
p1735
(dp1736
S'ERROR_FLAGS'
p1737
(lp1738
I5
assS'151126_LcaMig.mod'
p1739
(dp1740
S'G_VALS'
p1741
(dp1742
S'glcabar_lca'
p1743
F1.0
ssS'GATES'
p1744
(dp1745
S'm'
p1746
I2
ssS'SUFFIX'
p1747
S'lca'
p1748
sS'GMAX_NAME'
p1749
g1743
sS'STATES'
p1750
(lp1751
g1746
asS'I_VALS'
p1752
(dp1753
F6.3
g16
(g20
S'\xd3\xdc\xe9rm\xa9\xd4?'
p1754
tp1755
Rp1756
sI37
g16
(g20
S'vY\x1b\x07\xcbQ\xd3?'
p1757
tp1758
Rp1759
ssS'ERROR_FLAGS'
p1760
(lp1761
ssS'138321_it2.mod'
p1762
(dp1763
S'G_VALS'
p1764
(dp1765
S'gcabar_it2'
p1766
F0.0008
ssS'GATES'
p1767
(dp1768
S'h'
p1769
I1
sS'm'
p1770
I2
ssS'SUFFIX'
p1771
S'it2'
p1772
sS'GMAX_NAME'
p1773
g1766
sS'STATES'
p1774
(lp1775
g1770
ag1769
asS'I_VALS'
p1776
(dp1777
F6.3
g16
(g20
S'\x03\xeb\xb4N\xe26J?'
p1778
tp1779
Rp1780
sI37
g16
(g20
S'\x03\xeb\xb4N\xe26J?'
p1781
tp1782
Rp1783
ssS'ERROR_FLAGS'
p1784
(lp1785
ssS'3807_cachlech.mod'
p1786
(dp1787
S'G_VALS'
p1788
(dp1789
S'gcabar_cach'
p1790
F2e-06
ssS'GATES'
p1791
(dp1792
S'm'
p1793
I1
ssS'SUFFIX'
p1794
S'cach'
p1795
sS'GMAX_NAME'
p1796
g1790
sS'STATES'
p1797
(lp1798
g1793
asS'I_VALS'
p1799
(dp1800
F6.3
g16
(g20
S'\xf1\xdd\xb5\xa0\xf7\xc6\xc0>'
p1801
tp1802
Rp1803
sI37
g16
(g20
S'\xf1\xdd\xb5\xa0\xf7\xc6\xc0>'
p1804
tp1805
Rp1806
ssS'ERROR_FLAGS'
p1807
(lp1808
ssS'115356_CAR.mod'
p1809
(dp1810
S'ERROR_FLAGS'
p1811
(lp1812
I5
assS'147461_iCaL.mod'
p1813
(dp1814
S'ERROR_FLAGS'
p1815
(lp1816
I5
assS'139657_lva.mod'
p1817
(dp1818
S'ERROR_FLAGS'
p1819
(lp1820
I4
assS'150284_caq.mod'
p1821
(dp1822
S'ERROR_FLAGS'
p1823
(lp1824
I5
assS'144490_car.mod'
p1825
(dp1826
S'G_VALS'
p1827
(dp1828
S'gcabar_car'
p1829
F1.0
sS'gmax_car'
p1830
F0.0
ssS'GATES'
p1831
(dp1832
S'h'
p1833
I1
sS'm'
p1834
I3
ssS'SUFFIX'
p1835
S'car'
p1836
sS'GMAX_NAME'
p1837
g1829
sS'STATES'
p1838
(lp1839
g1834
ag1833
asS'I_VALS'
p1840
(dp1841
F6.3
g16
(g20
S'\rk\xb4\xf2\xff\xff\xef?'
p1842
tp1843
Rp1844
sI37
g16
(g20
S'\rk\xb4\xf2\xff\xff\xef?'
p1845
tp1846
Rp1847
ssS'ERROR_FLAGS'
p1848
(lp1849
ssS'87284_can2.mod'
p1850
(dp1851
S'G_VALS'
p1852
(dp1853
S'gcanbar_can'
p1854
F0.0003
ssS'GATES'
p1855
(dp1856
S'h'
p1857
I2
sS'm'
p1858
I2
ssS'SUFFIX'
p1859
S'can'
p1860
sS'GMAX_NAME'
p1861
g1854
sS'STATES'
p1862
(lp1863
g1858
ag1857
asS'I_VALS'
p1864
(dp1865
F6.3
g16
(g20
S'\x0e$\xa8R_\xa6\x1a?'
p1866
tp1867
Rp1868
sI37
g16
(g20
S'\x07\xce\xb1\xdf%\xeb\x18?'
p1869
tp1870
Rp1871
ssS'ERROR_FLAGS'
p1872
(lp1873
ssS'156780_Ca_HVA.mod'
p1874
(dp1875
S'G_VALS'
p1876
(dp1877
S'gCa_HVAbar_Ca_HVA'
p1878
F1e-05
ssS'GATES'
p1879
(dp1880
S'h'
p1881
I1
sS'm'
p1882
I2
ssS'SUFFIX'
p1883
S'Ca_HVA'
p1884
sS'GMAX_NAME'
p1885
g1878
sS'STATES'
p1886
(lp1887
g1882
ag1881
asS'I_VALS'
p1888
(dp1889
F6.3
g16
(g20
S'\x1dT\xe3\x88\xb5\xf8\xe4>'
p1890
tp1891
Rp1892
sI37
g16
(g20
S'\x1dT\xe3\x88\xb5\xf8\xe4>'
p1893
tp1894
Rp1895
ssS'ERROR_FLAGS'
p1896
(lp1897
ssS'155568_tca.mod'
p1898
(dp1899
S'G_VALS'
p1900
(dp1901
S'gcatbar_cat'
p1902
F0.003
ssS'GATES'
p1903
(dp1904
S'h'
p1905
I1
sS'm'
p1906
I2
ssS'SUFFIX'
p1907
S'cat'
p1908
sS'GMAX_NAME'
p1909
g1902
sS'STATES'
p1910
(lp1911
g1906
ag1905
asS'I_VALS'
p1912
(dp1913
F6.3
g16
(g20
S'\xd4\x86\xdd+\xdf\xa7P?'
p1914
tp1915
Rp1916
sI37
g16
(g20
S'\x85\xf5\x8d\x9f\xac%O?'
p1917
tp1918
Rp1919
ssS'ERROR_FLAGS'
p1920
(lp1921
ssS'183949_L_Ca_inact.mod'
p1922
(dp1923
S'G_VALS'
p1924
(dp1925
S'gcabar_L_Ca_inact'
p1926
F0.0003
ssS'GATES'
p1927
(dp1928
S'h'
p1929
I1
sS'm'
p1930
I1
ssS'SUFFIX'
p1931
S'L_Ca_inact'
p1932
sS'GMAX_NAME'
p1933
g1926
sS'STATES'
p1934
(lp1935
g1930
ag1929
asS'I_VALS'
p1936
(dp1937
F6.3
g16
(g20
S'\xec\xcd\xc3\x1d*\xa93?'
p1938
tp1939
Rp1940
sI37
g16
(g20
S'\xec\xcd\xc3\x1d*\xa93?'
p1941
tp1942
Rp1943
ssS'ERROR_FLAGS'
p1944
(lp1945
ssS'184327_Ca_LVA.mod'
p1946
(dp1947
S'G_VALS'
p1948
(dp1949
S'gbar_Ca_LVA'
p1950
F1e-05
ssS'GATES'
p1951
(dp1952
S'h'
p1953
I1
sS'm'
p1954
I2
ssS'SUFFIX'
p1955
S'Ca_LVA'
p1956
sS'GMAX_NAME'
p1957
g1950
sS'STATES'
p1958
(lp1959
g1954
ag1953
asS'I_VALS'
p1960
(dp1961
F6.3
g16
(g20
S'%\x90\xe3\x88\xb5\xf8\xe4>'
p1962
tp1963
Rp1964
sI37
g16
(g20
S'\xc6\xb6\xe0\x88\xb5\xf8\xe4>'
p1965
tp1966
Rp1967
ssS'ERROR_FLAGS'
p1968
(lp1969
ssS'151949_iCaL.mod'
p1970
(dp1971
S'ERROR_FLAGS'
p1972
(lp1973
I5
assS'127507_newcachan.mod'
p1974
(dp1975
S'ERROR_FLAGS'
p1976
(lp1977
I8
assS'118986_cat.mod'
p1978
(dp1979
S'G_VALS'
p1980
(dp1981
S'gcatbar_cat'
p1982
F0.003
ssS'GATES'
p1983
(dp1984
S'h'
p1985
I1
sS'm'
p1986
I2
ssS'SUFFIX'
p1987
S'cat'
p1988
sS'GMAX_NAME'
p1989
g1982
sS'STATES'
p1990
(lp1991
g1986
ag1985
asS'I_VALS'
p1992
(dp1993
F6.3
g16
(g20
S'y\x8f\x9e\x85\x8d\x1fP?'
p1994
tp1995
Rp1996
sI37
g16
(g20
S'\xa2\xc4q\x81\xf9\rN?'
p1997
tp1998
Rp1999
ssS'ERROR_FLAGS'
p2000
(lp2001
ssS'184331_Ca_LVA.mod'
p2002
(dp2003
S'G_VALS'
p2004
(dp2005
S'gbar_Ca_LVA'
p2006
F1e-05
ssS'GATES'
p2007
(dp2008
S'h'
p2009
I1
sS'm'
p2010
I2
ssS'SUFFIX'
p2011
S'Ca_LVA'
p2012
sS'GMAX_NAME'
p2013
g2006
sS'STATES'
p2014
(lp2015
g2010
ag2009
asS'I_VALS'
p2016
(dp2017
F6.3
g16
(g20
S'%\x90\xe3\x88\xb5\xf8\xe4>'
p2018
tp2019
Rp2020
sI37
g16
(g20
S'\xc6\xb6\xe0\x88\xb5\xf8\xe4>'
p2021
tp2022
Rp2023
ssS'ERROR_FLAGS'
p2024
(lp2025
ssS'20007_CAlM95.mod'
p2026
(dp2027
S'G_VALS'
p2028
(dp2029
S'gbar_CAlM95'
p2030
F0.003
ssS'GATES'
p2031
(dp2032
S'm'
p2033
I2
ssS'SUFFIX'
p2034
S'CAlM95'
p2035
sS'GMAX_NAME'
p2036
g2030
sS'STATES'
p2037
(lp2038
g2033
asS'I_VALS'
p2039
(dp2040
F6.3
g16
(g20
S'\xcc\x15\xfd\xa1\x8f\xbcO?'
p2041
tp2042
Rp2043
sI37
g16
(g20
S'/"\xb8\x0f\xbd\xacM?'
p2044
tp2045
Rp2046
ssS'ERROR_FLAGS'
p2047
(lp2048
ssS'140471_Ca.mod'
p2049
(dp2050
S'ERROR_FLAGS'
p2051
(lp2052
I7
assS'3808_it.mod'
p2053
(dp2054
S'ERROR_FLAGS'
p2055
(lp2056
I5
assS'116094_lcafixed.mod'
p2057
(dp2058
S'G_VALS'
p2059
(dp2060
S'gcabar_lcafixed'
p2061
F0.12
ssS'GATES'
p2062
(dp2063
S's'
p2064
I1
sS'r'
p2065
I1
ssS'SUFFIX'
p2066
S'lcafixed'
p2067
sS'GMAX_NAME'
p2068
g2061
sS'STATES'
p2069
(lp2070
g2065
ag2064
asS'I_VALS'
p2071
(dp2072
F6.3
g16
(g20
S'\xb7\x03 ],\xb8\xbe?'
p2073
tp2074
Rp2075
sI37
g16
(g20
S'\xb7\x03 ],\xb8\xbe?'
p2076
tp2077
Rp2078
ssS'ERROR_FLAGS'
p2079
(lp2080
ssS'144376_ICaL.mod'
p2081
(dp2082
S'ERROR_FLAGS'
p2083
(lp2084
I5
assS'113446_cal2.mod'
p2085
(dp2086
S'G_VALS'
p2087
(dp2088
S'gcalbar_cal'
p2089
F0.003
ssS'GATES'
p2090
(dp2091
S'm'
p2092
I2
ssS'SUFFIX'
p2093
S'cal'
p2094
sS'GMAX_NAME'
p2095
g2089
sS'STATES'
p2096
(lp2097
g2092
asS'I_VALS'
p2098
(dp2099
F6.3
g16
(g20
S'w\x90.\xe4\xdcgg?'
p2100
tp2101
Rp2102
sI37
g16
(g20
S'5\x1d.\xe4\xdcgg?'
p2103
tp2104
Rp2105
ssS'ERROR_FLAGS'
p2106
(lp2107
ssS'150551_caltype.mod'
p2108
(dp2109
S'G_VALS'
p2110
(dp2111
S'gcalbar_call'
p2112
F1.0
ssS'GATES'
p2113
(dp2114
S'm'
p2115
I1
ssS'SUFFIX'
p2116
S'call'
p2117
sS'GMAX_NAME'
p2118
g2112
sS'STATES'
p2119
(lp2120
g2115
asS'I_VALS'
p2121
(dp2122
F6.3
g16
(g20
S'0\x02q\xf4\x814\xd1?'
p2123
tp2124
Rp2125
sI37
g16
(g20
S'$\\>\xa2\xa8\x05\xd0?'
p2126
tp2127
Rp2128
ssS'ERROR_FLAGS'
p2129
(lp2130
ssS'125152_CAR.mod'
p2131
(dp2132
S'ERROR_FLAGS'
p2133
(lp2134
I5
assS'64229_calRT03_v2.mod'
p2135
(dp2136
S'ERROR_FLAGS'
p2137
(lp2138
I1
assS'144523_CaLVA.mod'
p2139
(dp2140
S'ERROR_FLAGS'
p2141
(lp2142
I5
assS'149000_CaT.mod'
p2143
(dp2144
S'G_VALS'
p2145
(dp2146
S'gcabar_CaT'
p2147
F0.0005
ssS'GATES'
p2148
(dp2149
S'h'
p2150
I1
sS'm'
p2151
I1
ssS'SUFFIX'
p2152
S'CaT'
p2153
sS'GMAX_NAME'
p2154
g2147
sS'STATES'
p2155
(lp2156
g2151
ag2150
asS'I_VALS'
p2157
(dp2158
F6.3
g16
(g20
S'\xf2\xd3\x97\xfdMb@?'
p2159
tp2160
Rp2161
sI37
g16
(g20
S'l\xce\xf0EMb@?'
p2162
tp2163
Rp2164
ssS'ERROR_FLAGS'
p2165
(lp2166
ssS'155568_LcaMig.mod'
p2167
(dp2168
S'G_VALS'
p2169
(dp2170
S'glcabar_lca'
p2171
F1.0
ssS'GATES'
p2172
(dp2173
S'm'
p2174
I2
ssS'SUFFIX'
p2175
S'lca'
p2176
sS'GMAX_NAME'
p2177
g2171
sS'STATES'
p2178
(lp2179
g2174
asS'I_VALS'
p2180
(dp2181
F6.3
g16
(g20
S'\xd3\xdc\xe9rm\xa9\xd4?'
p2182
tp2183
Rp2184
sI37
g16
(g20
S'vY\x1b\x07\xcbQ\xd3?'
p2185
tp2186
Rp2187
ssS'ERROR_FLAGS'
p2188
(lp2189
ssS'116053_ca.mod'
p2190
(dp2191
S'G_VALS'
p2192
(dp2193
S'gbar_ca'
p2194
F0.1
ssS'GATES'
p2195
(dp2196
S'h'
p2197
I1
sS'm'
p2198
I2
ssS'SUFFIX'
p2199
S'ca'
p2200
sS'GMAX_NAME'
p2201
g2194
sS'STATES'
p2202
(lp2203
g2198
ag2197
asS'I_VALS'
p2204
(dp2205
F6.3
g16
(g20
S'y3\xb4z\xba\xdf\xc4>'
p2206
tp2207
Rp2208
sI37
g16
(g20
S'N\xc6\xbf\x0e\x89\xd3\x00?'
p2209
tp2210
Rp2211
ssS'ERROR_FLAGS'
p2212
(lp2213
ssS'116740_Ca.mod'
p2214
(dp2215
S'ERROR_FLAGS'
p2216
(lp2217
I7
assS'155157_IT_huguenard.mod'
p2218
(dp2219
S'G_VALS'
p2220
(dp2221
S'gcabar_it'
p2222
F0.002
ssS'GATES'
p2223
(dp2224
S'h'
p2225
I1
ssS'SUFFIX'
p2226
S'it'
p2227
sS'GMAX_NAME'
p2228
g2222
sS'STATES'
p2229
(lp2230
g2225
asS'I_VALS'
p2231
(dp2232
F6.3
g16
(g20
S'pH,`A\xdf#?'
p2233
tp2234
Rp2235
sI37
g16
(g20
S'1}Iv\x07\xec#?'
p2236
tp2237
Rp2238
ssS'ERROR_FLAGS'
p2239
(lp2240
ssS'120910_cachdend.mod'
p2241
(dp2242
S'G_VALS'
p2243
(dp2244
S'gcabar_cachdend'
p2245
F0.0004
ssS'GATES'
p2246
(dp2247
S'm'
p2248
I1
ssS'SUFFIX'
p2249
S'cachdend'
p2250
sS'GMAX_NAME'
p2251
g2245
sS'STATES'
p2252
(lp2253
g2248
asS'I_VALS'
p2254
(dp2255
F6.3
g16
(g20
S'\x12*\t\xeb\xe26:?'
p2256
tp2257
Rp2258
sI37
g16
(g20
S'\x12*\t\xeb\xe26:?'
p2259
tp2260
Rp2261
ssS'ERROR_FLAGS'
p2262
(lp2263
ssS'155601_nca.mod'
p2264
(dp2265
S'G_VALS'
p2266
(dp2267
S'gncabar_nca'
p2268
F1.0
ssS'GATES'
p2269
(dp2270
S'c'
p2271
I2
sS'd'
p2272
I1
ssS'SUFFIX'
p2273
S'nca'
p2274
sS'GMAX_NAME'
p2275
g2268
sS'STATES'
p2276
(lp2277
g2271
ag2272
asS'I_VALS'
p2278
(dp2279
F6.3
g16
(g20
S']\xbd\x04\xcf\xd4\xff\xef?'
p2280
tp2281
Rp2282
sI37
g16
(g20
S'Q\xf9;\x8c\xa5\xff\xef?'
p2283
tp2284
Rp2285
ssS'ERROR_FLAGS'
p2286
(lp2287
ssS'45539_cat_a.mod'
p2288
(dp2289
S'G_VALS'
p2290
(dp2291
S'gbar_cat_a'
p2292
F1.0
ssS'GATES'
p2293
(dp2294
S'h'
p2295
I1
sS'm'
p2296
I2
ssS'SUFFIX'
p2297
S'cat_a'
p2298
sS'GMAX_NAME'
p2299
g2292
sS'STATES'
p2300
(lp2301
g2296
ag2295
asS'I_VALS'
p2302
(dp2303
F6.3
g16
(g20
S'[B\x85\x02\x11\xfe\xef?'
p2304
tp2305
Rp2306
sI37
g16
(g20
S'[B\x85\x02\x11\xfe\xef?'
p2307
tp2308
Rp2309
ssS'ERROR_FLAGS'
p2310
(lp2311
ssS'144450_somacar.mod'
p2312
(dp2313
S'G_VALS'
p2314
(dp2315
S'gcabar_somacar'
p2316
F1.0
ssS'GATES'
p2317
(dp2318
S'h'
p2319
I1
sS'm'
p2320
I3
ssS'SUFFIX'
p2321
S'somacar'
p2322
sS'GMAX_NAME'
p2323
g2316
sS'STATES'
p2324
(lp2325
g2320
ag2319
asS'I_VALS'
p2326
(dp2327
F6.3
g16
(g20
S'\xfe\xe2\xf2$\x93\xfd\xef?'
p2328
tp2329
Rp2330
sI37
g16
(g20
S'N$+C\x93\xfd\xef?'
p2331
tp2332
Rp2333
ssS'ERROR_FLAGS'
p2334
(lp2335
ssS'138382_newCaP.mod'
p2336
(dp2337
S'ERROR_FLAGS'
p2338
(lp2339
I5
assS'126637_CaE.mod'
p2340
(dp2341
S'G_VALS'
p2342
(dp2343
S'gcabar_CaE'
p2344
F0.0005
ssS'GATES'
p2345
(dp2346
S'h'
p2347
I1
sS'm'
p2348
I1
ssS'SUFFIX'
p2349
S'CaE'
p2350
sS'GMAX_NAME'
p2351
g2344
sS'STATES'
p2352
(lp2353
g2348
ag2347
asS'I_VALS'
p2354
(dp2355
F6.3
g16
(g20
S'\x9c\xa0\x9a\xe3Mb@?'
p2356
tp2357
Rp2358
sI37
g16
(g20
S'\xda\r\x91\xd0Mb@?'
p2359
tp2360
Rp2361
ssS'ERROR_FLAGS'
p2362
(lp2363
ssS'116096_ca.mod'
p2364
(dp2365
S'G_VALS'
p2366
(dp2367
S'gbar_ca'
p2368
F0.1
ssS'GATES'
p2369
(dp2370
S'h'
p2371
I1
sS'm'
p2372
I2
ssS'SUFFIX'
p2373
S'ca'
p2374
sS'GMAX_NAME'
p2375
g2368
sS'STATES'
p2376
(lp2377
g2372
ag2371
asS'I_VALS'
p2378
(dp2379
F6.3
g16
(g20
S'{3\xb4z\xba\xdf\xc4>'
p2380
tp2381
Rp2382
sI37
g16
(g20
S'G\xc6\xbf\x0e\x89\xd3\x00?'
p2383
tp2384
Rp2385
ssS'ERROR_FLAGS'
p2386
(lp2387
ssS'185858_cat.mod'
p2388
(dp2389
S'G_VALS'
p2390
(dp2391
S'gcatbar_cat'
p2392
F0.003
ssS'GATES'
p2393
(dp2394
S'h'
p2395
I1
sS'm'
p2396
I2
ssS'SUFFIX'
p2397
S'cat'
p2398
sS'GMAX_NAME'
p2399
g2392
sS'STATES'
p2400
(lp2401
g2396
ag2395
asS'I_VALS'
p2402
(dp2403
F6.3
g16
(g20
S'\x0b2\x7f\xce\xe2\xa7P?'
p2404
tp2405
Rp2406
sI37
g16
(g20
S'\\\x8b]\xa1\xb2%O?'
p2407
tp2408
Rp2409
ssS'ERROR_FLAGS'
p2410
(lp2411
ssS'116835_GRC_CA.mod'
p2412
(dp2413
S'G_VALS'
p2414
(dp2415
S'gcabar_GRC_CA'
p2416
F0.00046
ssS'GATES'
p2417
(dp2418
S's'
p2419
I2
sS'u'
p2420
I1
ssS'SUFFIX'
p2421
S'GRC_CA'
p2422
sS'GMAX_NAME'
p2423
g2416
sS'STATES'
p2424
(lp2425
g2419
ag2420
asS'I_VALS'
p2426
(dp2427
F6.3
g16
(g20
S'sW\xd8\xee\x84%>?'
p2428
tp2429
Rp2430
sI37
g16
(g20
S'W\xb1R\xb1\x84%>?'
p2431
tp2432
Rp2433
ssS'ERROR_FLAGS'
p2434
(lp2435
ssS'151458_caq.mod'
p2436
(dp2437
S'ERROR_FLAGS'
p2438
(lp2439
I5
assS'20212_it1.mod'
p2440
(dp2441
S'G_VALS'
p2442
(dp2443
S'gcabar_it'
p2444
F0.002
ssS'GATES'
p2445
(dp2446
S'h'
p2447
I1
ssS'SUFFIX'
p2448
S'it'
p2449
sS'GMAX_NAME'
p2450
g2444
sS'STATES'
p2451
(lp2452
g2447
asS'I_VALS'
p2453
(dp2454
F6.3
g16
(g20
S'l\x15-`A\xdf#?'
p2455
tp2456
Rp2457
sI37
g16
(g20
S'\x8e~\x13y\x07\xec#?'
p2458
tp2459
Rp2460
ssS'ERROR_FLAGS'
p2461
(lp2462
ssS'155157_lcafixed.mod'
p2463
(dp2464
S'G_VALS'
p2465
(dp2466
S'gcabar_lcafixed'
p2467
F0.12
ssS'GATES'
p2468
(dp2469
S's'
p2470
I1
sS'r'
p2471
I1
ssS'SUFFIX'
p2472
S'lcafixed'
p2473
sS'GMAX_NAME'
p2474
g2467
sS'STATES'
p2475
(lp2476
g2471
ag2470
asS'I_VALS'
p2477
(dp2478
F6.3
g16
(g20
S'\xb7\x03 ],\xb8\xbe?'
p2479
tp2480
Rp2481
sI37
g16
(g20
S'\xb7\x03 ],\xb8\xbe?'
p2482
tp2483
Rp2484
ssS'ERROR_FLAGS'
p2485
(lp2486
ssS'184316_Ca_LVA.mod'
p2487
(dp2488
S'G_VALS'
p2489
(dp2490
S'gbar_Ca_LVA'
p2491
F1e-05
ssS'GATES'
p2492
(dp2493
S'h'
p2494
I1
sS'm'
p2495
I2
ssS'SUFFIX'
p2496
S'Ca_LVA'
p2497
sS'GMAX_NAME'
p2498
g2491
sS'STATES'
p2499
(lp2500
g2495
ag2494
asS'I_VALS'
p2501
(dp2502
F6.3
g16
(g20
S'%\x90\xe3\x88\xb5\xf8\xe4>'
p2503
tp2504
Rp2505
sI37
g16
(g20
S'\xc6\xb6\xe0\x88\xb5\xf8\xe4>'
p2506
tp2507
Rp2508
ssS'ERROR_FLAGS'
p2509
(lp2510
ssS'116769_car.mod'
p2511
(dp2512
S'ERROR_FLAGS'
p2513
(lp2514
I8
assS'155796_can.mod'
p2515
(dp2516
S'G_VALS'
p2517
(dp2518
S'gbar_can'
p2519
F0.04
ssS'GATES'
p2520
(dp2521
S'h'
p2522
I1
sS'm'
p2523
I2
ssS'SUFFIX'
p2524
S'can'
p2525
sS'GMAX_NAME'
p2526
g2519
sS'STATES'
p2527
(lp2528
g2523
ag2522
asS'I_VALS'
p2529
(dp2530
F6.3
g16
(g20
S'\xc7\x13\xaeG\xe1z\xa4?'
p2531
tp2532
Rp2533
sI37
g16
(g20
S'\xc7\x13\xaeG\xe1z\xa4?'
p2534
tp2535
Rp2536
ssS'ERROR_FLAGS'
p2537
(lp2538
ssS'147867_cat.mod'
p2539
(dp2540
S'G_VALS'
p2541
(dp2542
S'gcatbar_cat'
p2543
F0.003
ssS'GATES'
p2544
(dp2545
S'h'
p2546
I1
sS'm'
p2547
I2
ssS'SUFFIX'
p2548
S'cat'
p2549
sS'GMAX_NAME'
p2550
g2543
sS'STATES'
p2551
(lp2552
g2547
ag2546
asS'I_VALS'
p2553
(dp2554
F6.3
g16
(g20
S'\xd4\x86\xdd+\xdf\xa7P?'
p2555
tp2556
Rp2557
sI37
g16
(g20
S'\x85\xf5\x8d\x9f\xac%O?'
p2558
tp2559
Rp2560
ssS'ERROR_FLAGS'
p2561
(lp2562
ssS'20007_CAnM95.mod'
p2563
(dp2564
S'G_VALS'
p2565
(dp2566
S'gbar_CAnM95'
p2567
F0.0003
ssS'GATES'
p2568
(dp2569
S'h'
p2570
I2
sS'm'
p2571
I2
ssS'SUFFIX'
p2572
S'CAnM95'
p2573
sS'GMAX_NAME'
p2574
g2567
sS'STATES'
p2575
(lp2576
g2571
ag2570
asS'I_VALS'
p2577
(dp2578
F6.3
g16
(g20
S'\xf15{\xa5!\xa7\x1a?'
p2579
tp2580
Rp2581
sI37
g16
(g20
S'\x99\x1d+\x93\xdb\xeb\x18?'
p2582
tp2583
Rp2584
ssS'ERROR_FLAGS'
p2585
(lp2586
ssS'123927_CAl.mod'
p2587
(dp2588
S'ERROR_FLAGS'
p2589
(lp2590
I5
assS'9889_IT2_huguenard.mod'
p2591
(dp2592
S'G_VALS'
p2593
(dp2594
S'gcabar_it2'
p2595
F0.0008
ssS'GATES'
p2596
(dp2597
S'h'
p2598
I1
sS'm'
p2599
I2
ssS'SUFFIX'
p2600
S'it2'
p2601
sS'GMAX_NAME'
p2602
g2595
sS'STATES'
p2603
(lp2604
g2599
ag2598
asS'I_VALS'
p2605
(dp2606
F6.3
g16
(g20
S'Z\n\x1b\xde\xe56J?'
p2607
tp2608
Rp2609
sI37
g16
(g20
S'\xdc\\w\xe9\xe26J?'
p2610
tp2611
Rp2612
ssS'ERROR_FLAGS'
p2613
(lp2614
ssS'122329_cap_gp.mod'
p2615
(dp2616
S'G_VALS'
p2617
(dp2618
S'gbar_cap_gp'
p2619
F1.0
ssS'GATES'
p2620
(dp2621
S'm'
p2622
I1
ssS'SUFFIX'
p2623
S'cap_gp'
p2624
sS'GMAX_NAME'
p2625
g2619
sS'STATES'
p2626
(lp2627
g2622
asS'I_VALS'
p2628
(dp2629
F6.3
g16
(g20
S'3\xa33\x89.\x89\xe9\xbe'
p2630
tp2631
Rp2632
sI37
g16
(g20
S'\xef\xa0\xf5H\x94\x1e[?'
p2633
tp2634
Rp2635
ssS'ERROR_FLAGS'
p2636
(lp2637
ssS'279_ITGHK.mod'
p2638
(dp2639
S'ERROR_FLAGS'
p2640
(lp2641
I5
assS'112546_can2.mod'
p2642
(dp2643
S'G_VALS'
p2644
(dp2645
S'gcanbar_can'
p2646
F0.0003
ssS'GATES'
p2647
(dp2648
S'h'
p2649
I2
sS'm'
p2650
I2
ssS'SUFFIX'
p2651
S'can'
p2652
sS'GMAX_NAME'
p2653
g2646
sS'STATES'
p2654
(lp2655
g2650
ag2649
asS'I_VALS'
p2656
(dp2657
F6.3
g16
(g20
S')M\xa6R_\xa6\x1a?'
p2658
tp2659
Rp2660
sI37
g16
(g20
S'\xa4,"\xdf%\xeb\x18?'
p2661
tp2662
Rp2663
ssS'ERROR_FLAGS'
p2664
(lp2665
ssS'147218_cap.mod'
p2666
(dp2667
S'ERROR_FLAGS'
p2668
(lp2669
I5
assS'64229_catRT03_v2.mod'
p2670
(dp2671
S'ERROR_FLAGS'
p2672
(lp2673
I1
assS'144089_cal.mod'
p2674
(dp2675
S'ERROR_FLAGS'
p2676
(lp2677
I8
assS'113446_it.mod'
p2678
(dp2679
S'G_VALS'
p2680
(dp2681
S'gcatbar_cat'
p2682
F0.0001
ssS'GATES'
p2683
(dp2684
S'h'
p2685
I1
sS'm'
p2686
I2
ssS'SUFFIX'
p2687
S'cat'
p2688
sS'GMAX_NAME'
p2689
g2682
sS'STATES'
p2690
(lp2691
g2686
ag2685
asS'I_VALS'
p2692
(dp2693
F6.3
g16
(g20
S'L\\\xe5\xf14\xccQ?'
p2694
tp2695
Rp2696
sI37
g16
(g20
S'H\x8d\xb2\xaf[\xfeM?'
p2697
tp2698
Rp2699
ssS'ERROR_FLAGS'
p2700
(lp2701
ssS'97917_cat_a.mod'
p2702
(dp2703
S'G_VALS'
p2704
(dp2705
S'gbar_cat_a'
p2706
F1.0
ssS'GATES'
p2707
(dp2708
S'h'
p2709
I1
sS'm'
p2710
I2
ssS'SUFFIX'
p2711
S'cat_a'
p2712
sS'GMAX_NAME'
p2713
g2706
sS'STATES'
p2714
(lp2715
g2710
ag2709
asS'I_VALS'
p2716
(dp2717
F6.3
g16
(g20
S'[B\x85\x02\x11\xfe\xef?'
p2718
tp2719
Rp2720
sI37
g16
(g20
S'[B\x85\x02\x11\xfe\xef?'
p2721
tp2722
Rp2723
ssS'ERROR_FLAGS'
p2724
(lp2725
ssS'50997_cagf.mod'
p2726
(dp2727
S'G_VALS'
p2728
(dp2729
S'gcabar_gfbp'
p2730
F0.002
ssS'GATES'
p2731
(dp2732
S'c'
p2733
I3
ssS'SUFFIX'
p2734
S'gfbp'
p2735
sS'GMAX_NAME'
p2736
g2730
sS'STATES'
p2737
(lp2738
g2733
asS'I_VALS'
p2739
(dp2740
F6.3
g16
(g20
S'\xb0\x9a\xf1\xd2Mb`?'
p2741
tp2742
Rp2743
sI37
g16
(g20
S'\xa5\x99\xf1\xd2Mb`?'
p2744
tp2745
Rp2746
ssS'ERROR_FLAGS'
p2747
(lp2748
ssS'3263_cal2.mod'
p2749
(dp2750
S'G_VALS'
p2751
(dp2752
S'gcalbar_cal'
p2753
F0.003
ssS'GATES'
p2754
(dp2755
S'm'
p2756
I2
ssS'SUFFIX'
p2757
S'cal'
p2758
sS'GMAX_NAME'
p2759
g2753
sS'STATES'
p2760
(lp2761
g2756
asS'I_VALS'
p2762
(dp2763
F6.3
g16
(g20
S'\xcc\x15\xfd\xa1\x8f\xbcO?'
p2764
tp2765
Rp2766
sI37
g16
(g20
S'/"\xb8\x0f\xbd\xacM?'
p2767
tp2768
Rp2769
ssS'ERROR_FLAGS'
p2770
(lp2771
ssS'83344_it2.mod'
p2772
(dp2773
S'G_VALS'
p2774
(dp2775
S'gcabar_it2'
p2776
F0.0008
ssS'GATES'
p2777
(dp2778
S'h'
p2779
I1
sS'm'
p2780
I2
ssS'SUFFIX'
p2781
S'it2'
p2782
sS'GMAX_NAME'
p2783
g2776
sS'STATES'
p2784
(lp2785
g2780
ag2779
asS'I_VALS'
p2786
(dp2787
F6.3
g16
(g20
S'\x03\xeb\xb4N\xe26J?'
p2788
tp2789
Rp2790
sI37
g16
(g20
S'\x03\xeb\xb4N\xe26J?'
p2791
tp2792
Rp2793
ssS'ERROR_FLAGS'
p2794
(lp2795
ssS'148094_cat.mod'
p2796
(dp2797
S'G_VALS'
p2798
(dp2799
S'gcatbar_cat'
p2800
F0.003
ssS'GATES'
p2801
(dp2802
S'h'
p2803
I1
sS'm'
p2804
I2
ssS'SUFFIX'
p2805
S'cat'
p2806
sS'GMAX_NAME'
p2807
g2800
sS'STATES'
p2808
(lp2809
g2804
ag2803
asS'I_VALS'
p2810
(dp2811
F6.3
g16
(g20
S'y\x8f\x9e\x85\x8d\x1fP?'
p2812
tp2813
Rp2814
sI37
g16
(g20
S'\xa2\xc4q\x81\xf9\rN?'
p2815
tp2816
Rp2817
ssS'ERROR_FLAGS'
p2818
(lp2819
ssS'144579_cal.mod'
p2820
(dp2821
S'G_VALS'
p2822
(dp2823
S'gbar_cal'
p2824
F1.0
ssS'GATES'
p2825
(dp2826
S'm'
p2827
I2
ssS'SUFFIX'
p2828
S'cal'
p2829
sS'GMAX_NAME'
p2830
g2824
sS'STATES'
p2831
(lp2832
g2827
asS'I_VALS'
p2833
(dp2834
F6.3
g16
(g20
S"\x92\xbd='\x9d\xfe\xef?"
p2835
tp2836
Rp2837
sI37
g16
(g20
S"\x92\xbd='\x9d\xfe\xef?"
p2838
tp2839
Rp2840
ssS'ERROR_FLAGS'
p2841
(lp2842
ssS'3343_IT2.mod'
p2843
(dp2844
S'G_VALS'
p2845
(dp2846
S'gcabar_it2'
p2847
F0.003
ssS'GATES'
p2848
(dp2849
S'h'
p2850
I1
sS'm'
p2851
I2
ssS'SUFFIX'
p2852
S'it2'
p2853
sS'GMAX_NAME'
p2854
g2847
sS'STATES'
p2855
(lp2856
g2851
ag2850
asS'I_VALS'
p2857
(dp2858
F6.3
g16
(g20
S'\xaf\x80\xff\x86w\x93h?'
p2859
tp2860
Rp2861
sI37
g16
(g20
S'/\xb2\xe9\xb8r\x93h?'
p2862
tp2863
Rp2864
ssS'ERROR_FLAGS'
p2865
(lp2866
ssS'144490_cat.mod'
p2867
(dp2868
S'G_VALS'
p2869
(dp2870
S'gmax_cat'
p2871
F0.0
sS'gcatbar_cat'
p2872
F1.0
ssS'GATES'
p2873
(dp2874
S'h'
p2875
I2
sS'm'
p2876
I2
ssS'SUFFIX'
p2877
S'cat'
p2878
sS'GMAX_NAME'
p2879
g2872
sS'STATES'
p2880
(lp2881
g2876
ag2875
asS'I_VALS'
p2882
(dp2883
F6.3
g16
(g20
S'3\x98\xafp8m\xe8?'
p2884
tp2885
Rp2886
sI37
g16
(g20
S'\x1d\xeeV\x97t\xd6\xe6?'
p2887
tp2888
Rp2889
ssS'ERROR_FLAGS'
p2890
(lp2891
ssS'185858_cal.mod'
p2892
(dp2893
S'G_VALS'
p2894
(dp2895
S'gcalbar_cal'
p2896
F0.003
ssS'GATES'
p2897
(dp2898
S'm'
p2899
I2
ssS'SUFFIX'
p2900
S'cal'
p2901
sS'GMAX_NAME'
p2902
g2896
sS'STATES'
p2903
(lp2904
g2899
asS'I_VALS'
p2905
(dp2906
F6.3
g16
(g20
S"\xa5'\xfd\xa1\x8f\xbcO?"
p2907
tp2908
Rp2909
sI37
g16
(g20
S"q'\xb8\x0f\xbd\xacM?"
p2910
tp2911
Rp2912
ssS'ERROR_FLAGS'
p2913
(lp2914
ssS'124513_nca.mod'
p2915
(dp2916
S'G_VALS'
p2917
(dp2918
S'gncabar_nca'
p2919
F1.0
ssS'GATES'
p2920
(dp2921
S'c'
p2922
I2
sS'd'
p2923
I1
ssS'SUFFIX'
p2924
S'nca'
p2925
sS'GMAX_NAME'
p2926
g2919
sS'STATES'
p2927
(lp2928
g2922
ag2923
asS'I_VALS'
p2929
(dp2930
F6.3
g16
(g20
S']\xbd\x04\xcf\xd4\xff\xef?'
p2931
tp2932
Rp2933
sI37
g16
(g20
S'Q\xf9;\x8c\xa5\xff\xef?'
p2934
tp2935
Rp2936
ssS'ERROR_FLAGS'
p2937
(lp2938
ssS'168874_cal_mig.mod'
p2939
(dp2940
S'G_VALS'
p2941
(dp2942
S'gcalbar_cal'
p2943
F0.003
ssS'GATES'
p2944
(dp2945
S'm'
p2946
I2
ssS'SUFFIX'
p2947
S'cal'
p2948
sS'GMAX_NAME'
p2949
g2943
sS'STATES'
p2950
(lp2951
g2946
asS'I_VALS'
p2952
(dp2953
F6.3
g16
(g20
S"\xa5'\xfd\xa1\x8f\xbcO?"
p2954
tp2955
Rp2956
sI37
g16
(g20
S"q'\xb8\x0f\xbd\xacM?"
p2957
tp2958
Rp2959
ssS'ERROR_FLAGS'
p2960
(lp2961
ssS'138321_SlowCa.mod'
p2962
(dp2963
S'G_VALS'
p2964
(dp2965
S'gbar_sca'
p2966
F0.1
ssS'GATES'
p2967
(dp2968
S'h'
p2969
I1
sS'm'
p2970
I2
ssS'SUFFIX'
p2971
S'sca'
p2972
sS'GMAX_NAME'
p2973
g2966
sS'STATES'
p2974
(lp2975
g2970
ag2969
asS'I_VALS'
p2976
(dp2977
F6.3
g16
(g20
S'{3\xb4z\xba\xdf\xc4>'
p2978
tp2979
Rp2980
sI37
g16
(g20
S'@\xc6\xbf\x0e\x89\xd3\x00?'
p2981
tp2982
Rp2983
ssS'ERROR_FLAGS'
p2984
(lp2985
ssS'181967_calH.mod'
p2986
(dp2987
S'G_VALS'
p2988
(dp2989
S'gcalbar_calH'
p2990
F1.0
ssS'GATES'
p2991
(dp2992
S'h'
p2993
I1
sS'm'
p2994
I3
ssS'SUFFIX'
p2995
S'calH'
p2996
sS'GMAX_NAME'
p2997
g2990
sS'STATES'
p2998
(lp2999
g2994
ag2993
asS'I_VALS'
p3000
(dp3001
F6.3
g16
(g20
S'\xf6\xef9L\xde\xfd\xef?'
p3002
tp3003
Rp3004
sI37
g16
(g20
S'\xf6\xef9L\xde\xfd\xef?'
p3005
tp3006
Rp3007
ssS'ERROR_FLAGS'
p3008
(lp3009
ssS'151458_caL13.mod'
p3010
(dp3011
S'ERROR_FLAGS'
p3012
(lp3013
I5
assS'151126_cat.mod'
p3014
(dp3015
S'G_VALS'
p3016
(dp3017
S'gcatbar_cat'
p3018
F1.0
ssS'GATES'
p3019
(dp3020
S'h'
p3021
I2
sS'm'
p3022
I2
ssS'SUFFIX'
p3023
S'cat'
p3024
sS'GMAX_NAME'
p3025
g3018
sS'STATES'
p3026
(lp3027
g3022
ag3021
asS'I_VALS'
p3028
(dp3029
F6.3
g16
(g20
S'\x15\x0b\x1c\xac\x8fs\xe8?'
p3030
tp3031
Rp3032
sI37
g16
(g20
S'jY\x13$b\xdc\xe6?'
p3033
tp3034
Rp3035
ssS'ERROR_FLAGS'
p3036
(lp3037
ssS'127388_pSTN.mod'
p3038
(dp3039
S'ERROR_FLAGS'
p3040
(lp3041
I4
assS'116862_IL.mod'
p3042
(dp3043
S'ERROR_FLAGS'
p3044
(lp3045
I5
assS'124513_tca.mod'
p3046
(dp3047
S'G_VALS'
p3048
(dp3049
S'gcatbar_cat'
p3050
F0.003
ssS'GATES'
p3051
(dp3052
S'h'
p3053
I1
sS'm'
p3054
I2
ssS'SUFFIX'
p3055
S'cat'
p3056
sS'GMAX_NAME'
p3057
g3050
sS'STATES'
p3058
(lp3059
g3054
ag3053
asS'I_VALS'
p3060
(dp3061
F6.3
g16
(g20
S'\xd4\x86\xdd+\xdf\xa7P?'
p3062
tp3063
Rp3064
sI37
g16
(g20
S'\x85\xf5\x8d\x9f\xac%O?'
p3065
tp3066
Rp3067
ssS'ERROR_FLAGS'
p3068
(lp3069
ssS'149000_CaP2.mod'
p3070
(dp3071
S'ERROR_FLAGS'
p3072
(lp3073
I4
assS'184180_Ca_LVA.mod'
p3074
(dp3075
S'G_VALS'
p3076
(dp3077
S'gbar_Ca_LVA'
p3078
F1e-05
ssS'GATES'
p3079
(dp3080
S'h'
p3081
I1
sS'm'
p3082
I2
ssS'SUFFIX'
p3083
S'Ca_LVA'
p3084
sS'GMAX_NAME'
p3085
g3078
sS'STATES'
p3086
(lp3087
g3082
ag3081
asS'I_VALS'
p3088
(dp3089
F6.3
g16
(g20
S'%\x90\xe3\x88\xb5\xf8\xe4>'
p3090
tp3091
Rp3092
sI37
g16
(g20
S'\xc6\xb6\xe0\x88\xb5\xf8\xe4>'
p3093
tp3094
Rp3095
ssS'ERROR_FLAGS'
p3096
(lp3097
ssS'20212_canKev.mod'
p3098
(dp3099
S'ERROR_FLAGS'
p3100
(lp3101
I5
assS'135839_ca.mod'
p3102
(dp3103
S'G_VALS'
p3104
(dp3105
S'gbar_ca'
p3106
F0.1
ssS'GATES'
p3107
(dp3108
S'h'
p3109
I1
sS'm'
p3110
I2
ssS'SUFFIX'
p3111
S'ca'
p3112
sS'GMAX_NAME'
p3113
g3106
sS'STATES'
p3114
(lp3115
g3110
ag3109
asS'I_VALS'
p3116
(dp3117
F6.3
g16
(g20
S'y3\xb4z\xba\xdf\xc4>'
p3118
tp3119
Rp3120
sI37
g16
(g20
S'N\xc6\xbf\x0e\x89\xd3\x00?'
p3121
tp3122
Rp3123
ssS'ERROR_FLAGS'
p3124
(lp3125
ssS'153280_ch_CavL.mod'
p3126
(dp3127
S'G_VALS'
p3128
(dp3129
S'gmax_ch_CavL'
p3130
F1.0
ssS'GATES'
p3131
(dp3132
S'm'
p3133
I2
ssS'SUFFIX'
p3134
S'ch_CavL'
p3135
sS'GMAX_NAME'
p3136
g3130
sS'STATES'
p3137
(lp3138
g3133
asS'I_VALS'
p3139
(dp3140
F6.3
g16
(g20
S'\x16\x98\xe9rm\xa9\xd4?'
p3141
tp3142
Rp3143
sI37
g16
(g20
S'=\x18\x1b\x07\xcbQ\xd3?'
p3144
tp3145
Rp3146
ssS'ERROR_FLAGS'
p3147
(lp3148
ssS'53876_caleak.mod'
p3149
(dp3150
S'ERROR_FLAGS'
p3151
(lp3152
I5
assS'151126_car.mod'
p3153
(dp3154
S'G_VALS'
p3155
(dp3156
S'gcabar_car'
p3157
F1.0
ssS'GATES'
p3158
(dp3159
S'h'
p3160
I1
sS'm'
p3161
I3
ssS'SUFFIX'
p3162
S'car'
p3163
sS'GMAX_NAME'
p3164
g3157
sS'STATES'
p3165
(lp3166
g3161
ag3160
asS'I_VALS'
p3167
(dp3168
F6.3
g16
(g20
S'\xe9n\xa6/\x91\xfd\xef?'
p3169
tp3170
Rp3171
sI37
g16
(g20
S'\xb9i\xa6/\x91\xfd\xef?'
p3172
tp3173
Rp3174
ssS'ERROR_FLAGS'
p3175
(lp3176
ssS'143671_L_Ca.mod'
p3177
(dp3178
S'G_VALS'
p3179
(dp3180
S'gcabar_L_Ca'
p3181
F0.0003
ssS'GATES'
p3182
(dp3183
S'm'
p3184
I1
ssS'SUFFIX'
p3185
S'L_Ca'
p3186
sS'GMAX_NAME'
p3187
g3181
sS'STATES'
p3188
(lp3189
g3184
asS'I_VALS'
p3190
(dp3191
F6.3
g16
(g20
S'\xeb\xcd\xc3\x1d*\xa93?'
p3192
tp3193
Rp3194
sI37
g16
(g20
S'\xeb\xcd\xc3\x1d*\xa93?'
p3195
tp3196
Rp3197
ssS'ERROR_FLAGS'
p3198
(lp3199
ssS'53876_hva.mod'
p3200
(dp3201
S'G_VALS'
p3202
(dp3203
S'gbar_hva'
p3204
F0.00111
ssS'GATES'
p3205
(dp3206
S's'
p3207
I2
sS'r'
p3208
I1
ssS'SUFFIX'
p3209
S'hva'
p3210
sS'GMAX_NAME'
p3211
g3204
sS'STATES'
p3212
(lp3213
g3207
ag3208
asS'I_VALS'
p3214
(dp3215
F6.3
g16
(g20
S'\x96\x8a\xe9|\xac/R?'
p3216
tp3217
Rp3218
sI37
g16
(g20
S'\x96\x8a\xe9|\xac/R?'
p3219
tp3220
Rp3221
ssS'ERROR_FLAGS'
p3222
(lp3223
ssS'3817_IT.mod'
p3224
(dp3225
S'G_VALS'
p3226
(dp3227
S'gcabar_it'
p3228
F0.002
ssS'GATES'
p3229
(dp3230
S'h'
p3231
I1
ssS'SUFFIX'
p3232
S'it'
p3233
sS'GMAX_NAME'
p3234
g3228
sS'STATES'
p3235
(lp3236
g3231
asS'I_VALS'
p3237
(dp3238
F6.3
g16
(g20
S'pH,`A\xdf#?'
p3239
tp3240
Rp3241
sI37
g16
(g20
S'1}Iv\x07\xec#?'
p3242
tp3243
Rp3244
ssS'ERROR_FLAGS'
p3245
(lp3246
ssS'185858_can.mod'
p3247
(dp3248
S'G_VALS'
p3249
(dp3250
S'gcanbar_can'
p3251
F0.0003
ssS'GATES'
p3252
(dp3253
S'h'
p3254
I2
sS'm'
p3255
I2
ssS'SUFFIX'
p3256
S'can'
p3257
sS'GMAX_NAME'
p3258
g3251
sS'STATES'
p3259
(lp3260
g3255
ag3254
asS'I_VALS'
p3261
(dp3262
F6.3
g16
(g20
S'\x0e$\xa8R_\xa6\x1a?'
p3263
tp3264
Rp3265
sI37
g16
(g20
S'\x07\xce\xb1\xdf%\xeb\x18?'
p3266
tp3267
Rp3268
ssS'ERROR_FLAGS'
p3269
(lp3270
ssS'53965_IT2.mod'
p3271
(dp3272
S'G_VALS'
p3273
(dp3274
S'gcabar_it2'
p3275
F0.0008
ssS'GATES'
p3276
(dp3277
S'h'
p3278
I1
sS'm'
p3279
I2
ssS'SUFFIX'
p3280
S'it2'
p3281
sS'GMAX_NAME'
p3282
g3275
sS'STATES'
p3283
(lp3284
g3279
ag3278
asS'I_VALS'
p3285
(dp3286
F6.3
g16
(g20
S'\xe6x\xb5q\xd76J?'
p3287
tp3288
Rp3289
sI37
g16
(g20
S'\x91\xa1\xb3d\xd66J?'
p3290
tp3291
Rp3292
ssS'ERROR_FLAGS'
p3293
(lp3294
ssS'135787_ca.mod'
p3295
(dp3296
S'G_VALS'
p3297
(dp3298
S'gbar_ca'
p3299
F0.1
ssS'GATES'
p3300
(dp3301
S'h'
p3302
I1
sS'm'
p3303
I2
ssS'SUFFIX'
p3304
S'ca'
p3305
sS'GMAX_NAME'
p3306
g3299
sS'STATES'
p3307
(lp3308
g3303
ag3302
asS'I_VALS'
p3309
(dp3310
F6.3
g16
(g20
S'y3\xb4z\xba\xdf\xc4>'
p3311
tp3312
Rp3313
sI37
g16
(g20
S'N\xc6\xbf\x0e\x89\xd3\x00?'
p3314
tp3315
Rp3316
ssS'ERROR_FLAGS'
p3317
(lp3318
ssS'155057_car.mod'
p3319
(dp3320
S'G_VALS'
p3321
(dp3322
S'gcabar_car'
p3323
F1.0
ssS'GATES'
p3324
(dp3325
S'h'
p3326
I1
sS'm'
p3327
I3
ssS'SUFFIX'
p3328
S'car'
p3329
sS'GMAX_NAME'
p3330
g3323
sS'STATES'
p3331
(lp3332
g3327
ag3326
asS'I_VALS'
p3333
(dp3334
F6.3
g16
(g20
S'\xd5:0f\x8f\xfd\xef?'
p3335
tp3336
Rp3337
sI37
g16
(g20
S'\xce:0f\x8f\xfd\xef?'
p3338
tp3339
Rp3340
ssS'ERROR_FLAGS'
p3341
(lp3342
ssS'146565_CaT.mod'
p3343
(dp3344
S'G_VALS'
p3345
(dp3346
S'gbar_it'
p3347
F0.0008
ssS'GATES'
p3348
(dp3349
S'h'
p3350
I1
sS'm'
p3351
I2
ssS'SUFFIX'
p3352
S'it'
p3353
sS'GMAX_NAME'
p3354
g3347
sS'STATES'
p3355
(lp3356
g3351
ag3350
asS'I_VALS'
p3357
(dp3358
F6.3
g16
(g20
S'\x03\xeb\xb4N\xe26J?'
p3359
tp3360
Rp3361
sI37
g16
(g20
S'\x03\xeb\xb4N\xe26J?'
p3362
tp3363
Rp3364
ssS'ERROR_FLAGS'
p3365
(lp3366
ssS'108459_ca.mod'
p3367
(dp3368
S'G_VALS'
p3369
(dp3370
S'gbar_ca'
p3371
F0.1
ssS'GATES'
p3372
(dp3373
S'h'
p3374
I1
sS'm'
p3375
I2
ssS'SUFFIX'
p3376
S'ca'
p3377
sS'GMAX_NAME'
p3378
g3371
sS'STATES'
p3379
(lp3380
g3375
ag3374
asS'I_VALS'
p3381
(dp3382
F6.3
g16
(g20
S'{3\xb4z\xba\xdf\xc4>'
p3383
tp3384
Rp3385
sI37
g16
(g20
S'G\xc6\xbf\x0e\x89\xd3\x00?'
p3386
tp3387
Rp3388
ssS'ERROR_FLAGS'
p3389
(lp3390
ssS'181967_cat.mod'
p3391
(dp3392
S'G_VALS'
p3393
(dp3394
S'gcatbar_cat'
p3395
F1.0
ssS'GATES'
p3396
(dp3397
S'h'
p3398
I2
sS'm'
p3399
I2
ssS'SUFFIX'
p3400
S'cat'
p3401
sS'GMAX_NAME'
p3402
g3395
sS'STATES'
p3403
(lp3404
g3399
ag3398
asS'I_VALS'
p3405
(dp3406
F6.3
g16
(g20
S'\x15\x0b\x1c\xac\x8fs\xe8?'
p3407
tp3408
Rp3409
sI37
g16
(g20
S'jY\x13$b\xdc\xe6?'
p3410
tp3411
Rp3412
ssS'ERROR_FLAGS'
p3413
(lp3414
ssS'185355_CaT.mod'
p3415
(dp3416
S'G_VALS'
p3417
(dp3418
S'gcatbar_tca'
p3419
F1.0
ssS'GATES'
p3420
(dp3421
S'a'
p3422
I2
sS'b'
p3423
I1
ssS'SUFFIX'
p3424
S'tca'
p3425
sS'GMAX_NAME'
p3426
g3419
sS'STATES'
p3427
(lp3428
g3422
ag3423
asS'I_VALS'
p3429
(dp3430
F6.3
g16
(g20
S' \x82\x99:\xd4\xf1\xef?'
p3431
tp3432
Rp3433
sI37
g16
(g20
S'\xa8\xbb\xba\xcd\xae\x06\xf0?'
p3434
tp3435
Rp3436
ssS'ERROR_FLAGS'
p3437
(lp3438
ssS'137259_can2.mod'
p3439
(dp3440
S'G_VALS'
p3441
(dp3442
S'gcanbar_can'
p3443
F0.0003
ssS'GATES'
p3444
(dp3445
S'h'
p3446
I2
sS'm'
p3447
I2
ssS'SUFFIX'
p3448
S'can'
p3449
sS'GMAX_NAME'
p3450
g3443
sS'STATES'
p3451
(lp3452
g3447
ag3446
asS'I_VALS'
p3453
(dp3454
F6.3
g16
(g20
S'\x0e$\xa8R_\xa6\x1a?'
p3455
tp3456
Rp3457
sI37
g16
(g20
S'\x07\xce\xb1\xdf%\xeb\x18?'
p3458
tp3459
Rp3460
ssS'ERROR_FLAGS'
p3461
(lp3462
ssS'151458_cat.mod'
p3463
(dp3464
S'ERROR_FLAGS'
p3465
(lp3466
I5
assS'150288_cal2.mod'
p3467
(dp3468
S'G_VALS'
p3469
(dp3470
S'gcalbar_cal'
p3471
F0.003
ssS'GATES'
p3472
(dp3473
S'm'
p3474
I2
ssS'SUFFIX'
p3475
S'cal'
p3476
sS'GMAX_NAME'
p3477
g3471
sS'STATES'
p3478
(lp3479
g3474
asS'I_VALS'
p3480
(dp3481
F6.3
g16
(g20
S'\xcc\x15\xfd\xa1\x8f\xbcO?'
p3482
tp3483
Rp3484
sI37
g16
(g20
S'/"\xb8\x0f\xbd\xacM?'
p3485
tp3486
Rp3487
ssS'ERROR_FLAGS'
p3488
(lp3489
ssS'123815_cal.mod'
p3490
(dp3491
S'G_VALS'
p3492
(dp3493
S'gcalbar_cal'
p3494
F1.0
ssS'GATES'
p3495
(dp3496
S'm'
p3497
I1
ssS'SUFFIX'
p3498
S'cal'
p3499
sS'GMAX_NAME'
p3500
g3494
sS'STATES'
p3501
(lp3502
g3497
asS'I_VALS'
p3503
(dp3504
F6.3
g16
(g20
S'0\x02q\xf4\x814\xd1?'
p3505
tp3506
Rp3507
sI37
g16
(g20
S'$\\>\xa2\xa8\x05\xd0?'
p3508
tp3509
Rp3510
ssS'ERROR_FLAGS'
p3511
(lp3512
ssS'20212_calH.mod'
p3513
(dp3514
S'G_VALS'
p3515
(dp3516
S'gcalbar_calH'
p3517
F1.0
ssS'GATES'
p3518
(dp3519
S'h'
p3520
I1
sS'm'
p3521
I3
ssS'SUFFIX'
p3522
S'calH'
p3523
sS'GMAX_NAME'
p3524
g3517
sS'STATES'
p3525
(lp3526
g3521
ag3520
asS'I_VALS'
p3527
(dp3528
F6.3
g16
(g20
S'\xf6\xef9L\xde\xfd\xef?'
p3529
tp3530
Rp3531
sI37
g16
(g20
S'\xf6\xef9L\xde\xfd\xef?'
p3532
tp3533
Rp3534
ssS'ERROR_FLAGS'
p3535
(lp3536
ssS'3808_il.mod'
p3537
(dp3538
S'ERROR_FLAGS'
p3539
(lp3540
I5
assS'136095_IL.mod'
p3541
(dp3542
S'ERROR_FLAGS'
p3543
(lp3544
I5
assS'101629_can2.mod'
p3545
(dp3546
S'G_VALS'
p3547
(dp3548
S'gcanbar_can'
p3549
F0.0003
ssS'GATES'
p3550
(dp3551
S'h'
p3552
I2
sS'm'
p3553
I2
ssS'SUFFIX'
p3554
S'can'
p3555
sS'GMAX_NAME'
p3556
g3549
sS'STATES'
p3557
(lp3558
g3553
ag3552
asS'I_VALS'
p3559
(dp3560
F6.3
g16
(g20
S'\x0e$\xa8R_\xa6\x1a?'
p3561
tp3562
Rp3563
sI37
g16
(g20
S'\x07\xce\xb1\xdf%\xeb\x18?'
p3564
tp3565
Rp3566
ssS'ERROR_FLAGS'
p3567
(lp3568
ssS'3263_can2.mod'
p3569
(dp3570
S'G_VALS'
p3571
(dp3572
S'gcanbar_can'
p3573
F0.0003
ssS'GATES'
p3574
(dp3575
S'h'
p3576
I2
sS'm'
p3577
I2
ssS'SUFFIX'
p3578
S'can'
p3579
sS'GMAX_NAME'
p3580
g3573
sS'STATES'
p3581
(lp3582
g3577
ag3576
asS'I_VALS'
p3583
(dp3584
F6.3
g16
(g20
S'\xf15{\xa5!\xa7\x1a?'
p3585
tp3586
Rp3587
sI37
g16
(g20
S'\x99\x1d+\x93\xdb\xeb\x18?'
p3588
tp3589
Rp3590
ssS'ERROR_FLAGS'
p3591
(lp3592
ssS'185858_icalts.mod'
p3593
(dp3594
S'ERROR_FLAGS'
p3595
(lp3596
I1
assS'140462_ICat1m3h.mod'
p3597
(dp3598
S'G_VALS'
p3599
(dp3600
S'gcabar_iCat1m3h'
p3601
F0.0008
ssS'GATES'
p3602
(dp3603
S'h'
p3604
I1
sS'm'
p3605
I3
ssS'SUFFIX'
p3606
S'iCat1m3h'
p3607
sS'GMAX_NAME'
p3608
g3601
sS'STATES'
p3609
(lp3610
g3605
ag3604
asS'I_VALS'
p3611
(dp3612
F6.3
g16
(g20
S'gL\x12\xdf\xe16J?'
p3613
tp3614
Rp3615
sI37
g16
(g20
S'\xdcpL\xca\xe16J?'
p3616
tp3617
Rp3618
ssS'ERROR_FLAGS'
p3619
(lp3620
ssS'105385_cal_gp.mod'
p3621
(dp3622
S'G_VALS'
p3623
(dp3624
S'gbar_cal_gp'
p3625
F0.003
ssS'GATES'
p3626
(dp3627
S'm'
p3628
I2
ssS'SUFFIX'
p3629
S'cal_gp'
p3630
sS'GMAX_NAME'
p3631
g3625
sS'STATES'
p3632
(lp3633
g3628
asS'I_VALS'
p3634
(dp3635
F6.3
g16
(g20
S':\xa0\xd18\x9a\xe0N?'
p3636
tp3637
Rp3638
sI37
g16
(g20
S'\x83\x8c\xa9\xf6c\xe0L?'
p3639
tp3640
Rp3641
ssS'ERROR_FLAGS'
p3642
(lp3643
ssS'2487_lcafixed.mod'
p3644
(dp3645
S'G_VALS'
p3646
(dp3647
S'gcabar_lcafixed'
p3648
F0.12
ssS'GATES'
p3649
(dp3650
S's'
p3651
I1
sS'r'
p3652
I1
ssS'SUFFIX'
p3653
S'lcafixed'
p3654
sS'GMAX_NAME'
p3655
g3648
sS'STATES'
p3656
(lp3657
g3652
ag3651
asS'I_VALS'
p3658
(dp3659
F6.3
g16
(g20
S'\xb7\x03 ],\xb8\xbe?'
p3660
tp3661
Rp3662
sI37
g16
(g20
S'\xb7\x03 ],\xb8\xbe?'
p3663
tp3664
Rp3665
ssS'ERROR_FLAGS'
p3666
(lp3667
ssS'19920_ca_a1g.mod'
p3668
(dp3669
S'G_VALS'
p3670
(dp3671
S'gbar_cat1g'
p3672
F0.008
ssS'GATES'
p3673
(dp3674
S'l'
p3675
I2
sS'n'
p3676
I1
ssS'SUFFIX'
p3677
S'cat1g'
p3678
sS'GMAX_NAME'
p3679
g3672
sS'STATES'
p3680
(lp3681
g3676
ag3675
asS'I_VALS'
p3682
(dp3683
F6.3
g16
(g20
S'\x07\x840\xd6\xcb\xef\xd6?'
p3684
tp3685
Rp3686
sI37
g16
(g20
S'\x0b\xc4\x90\xfd\xf0w\xd7?'
p3687
tp3688
Rp3689
ssS'ERROR_FLAGS'
p3690
(lp3691
ssS'147757_car.mod'
p3692
(dp3693
S'G_VALS'
p3694
(dp3695
S'gcabar_car'
p3696
F1.0
ssS'GATES'
p3697
(dp3698
S'h'
p3699
I1
sS'm'
p3700
I3
ssS'SUFFIX'
p3701
S'car'
p3702
sS'GMAX_NAME'
p3703
g3696
sS'STATES'
p3704
(lp3705
g3700
ag3699
asS'I_VALS'
p3706
(dp3707
F6.3
g16
(g20
S'\xe9n\xa6/\x91\xfd\xef?'
p3708
tp3709
Rp3710
sI37
g16
(g20
S'\xb9i\xa6/\x91\xfd\xef?'
p3711
tp3712
Rp3713
ssS'ERROR_FLAGS'
p3714
(lp3715
ssS'180373_Ca_LVAst.mod'
p3716
(dp3717
S'G_VALS'
p3718
(dp3719
S'gCa_LVAstbar_Ca_LVAst'
p3720
F1e-05
ssS'GATES'
p3721
(dp3722
S'h'
p3723
I1
sS'm'
p3724
I2
ssS'SUFFIX'
p3725
S'Ca_LVAst'
p3726
sS'GMAX_NAME'
p3727
g3720
sS'STATES'
p3728
(lp3729
g3724
ag3723
asS'I_VALS'
p3730
(dp3731
F6.3
g16
(g20
S'\x16[\xe1\x88\xb5\xf8\xe4>'
p3732
tp3733
Rp3734
sI37
g16
(g20
S'\x16[\xe1\x88\xb5\xf8\xe4>'
p3735
tp3736
Rp3737
ssS'ERROR_FLAGS'
p3738
(lp3739
ssS'169457_Ca_HVA.mod'
p3740
(dp3741
S'G_VALS'
p3742
(dp3743
S'gCa_HVAbar_Ca_HVA'
p3744
F1e-05
ssS'GATES'
p3745
(dp3746
S'h'
p3747
I1
sS'm'
p3748
I2
ssS'SUFFIX'
p3749
S'Ca_HVA'
p3750
sS'GMAX_NAME'
p3751
g3744
sS'STATES'
p3752
(lp3753
g3748
ag3747
asS'I_VALS'
p3754
(dp3755
F6.3
g16
(g20
S'\x1fT\xe3\x88\xb5\xf8\xe4>'
p3756
tp3757
Rp3758
sI37
g16
(g20
S'\x1fT\xe3\x88\xb5\xf8\xe4>'
p3759
tp3760
Rp3761
ssS'ERROR_FLAGS'
p3762
(lp3763
ssS'151126_somacar.mod'
p3764
(dp3765
S'G_VALS'
p3766
(dp3767
S'gcabar_somacar'
p3768
F1.0
ssS'GATES'
p3769
(dp3770
S'h'
p3771
I1
sS'm'
p3772
I3
ssS'SUFFIX'
p3773
S'somacar'
p3774
sS'GMAX_NAME'
p3775
g3768
sS'STATES'
p3776
(lp3777
g3772
ag3771
asS'I_VALS'
p3778
(dp3779
F6.3
g16
(g20
S'\x8f\xef%\xac\x8f\xfd\xef?'
p3780
tp3781
Rp3782
sI37
g16
(g20
S'\x8f\xef%\xac\x8f\xfd\xef?'
p3783
tp3784
Rp3785
ssS'ERROR_FLAGS'
p3786
(lp3787
ssS'123623_IL_gutnick.mod'
p3788
(dp3789
S'G_VALS'
p3790
(dp3791
S'gcabar_ical'
p3792
F0.0001
ssS'GATES'
p3793
(dp3794
S'h'
p3795
I1
sS'm'
p3796
I2
ssS'SUFFIX'
p3797
S'ical'
p3798
sS'GMAX_NAME'
p3799
g3792
sS'STATES'
p3800
(lp3801
g3796
ag3795
asS'I_VALS'
p3802
(dp3803
F6.3
g16
(g20
S'\xb3\xea\x91\x8245\x1a?'
p3804
tp3805
Rp3806
sI37
g16
(g20
S'%"\xbb\x9b45\x1a?'
p3807
tp3808
Rp3809
ssS'ERROR_FLAGS'
p3810
(lp3811
ssS'180789_cae.mod'
p3812
(dp3813
S'G_VALS'
p3814
(dp3815
S'gcabar_cae'
p3816
F0.0005
ssS'GATES'
p3817
(dp3818
S'h'
p3819
I1
sS'm'
p3820
I1
ssS'SUFFIX'
p3821
S'cae'
p3822
sS'GMAX_NAME'
p3823
g3816
sS'STATES'
p3824
(lp3825
g3820
ag3819
asS'I_VALS'
p3826
(dp3827
F6.3
g16
(g20
S'}\x83\xe3\xe5*\x04A?'
p3828
tp3829
Rp3830
sI37
g16
(g20
S'\x9cG\x0b\xdb\xec\xb8??'
p3831
tp3832
Rp3833
ssS'ERROR_FLAGS'
p3834
(lp3835
ssS'20212_calH_v2.mod'
p3836
(dp3837
S'G_VALS'
p3838
(dp3839
S'gcalbar_calH'
p3840
F1.0
ssS'GATES'
p3841
(dp3842
S'm'
p3843
I2
ssS'SUFFIX'
p3844
S'calH'
p3845
sS'GMAX_NAME'
p3846
g3840
sS'STATES'
p3847
(lp3848
g3843
asS'I_VALS'
p3849
(dp3850
F6.3
g16
(g20
S'\xe8\x13\xf4bm\xa9\xd4?'
p3851
tp3852
Rp3853
sI37
g16
(g20
S'\x9e^\xe7\xf7\xcaQ\xd3?'
p3854
tp3855
Rp3856
ssS'ERROR_FLAGS'
p3857
(lp3858
ssS'141273_cat.mod'
p3859
(dp3860
S'G_VALS'
p3861
(dp3862
S'gbar_cat'
p3863
F1.0
ssS'GATES'
p3864
(dp3865
S'h'
p3866
I1
sS'm'
p3867
I2
ssS'SUFFIX'
p3868
S'cat'
p3869
sS'GMAX_NAME'
p3870
g3863
sS'STATES'
p3871
(lp3872
g3867
ag3866
asS'I_VALS'
p3873
(dp3874
F6.3
g16
(g20
S'\x99\x8co\x1f\xe1\xfd\xef?'
p3875
tp3876
Rp3877
sI37
g16
(g20
S'\x99\x8co\x1f\xe1\xfd\xef?'
p3878
tp3879
Rp3880
ssS'ERROR_FLAGS'
p3881
(lp3882
ssS'151460_HVA.mod'
p3883
(dp3884
S'ERROR_FLAGS'
p3885
(lp3886
I1
assS'125385_sca.mod'
p3887
(dp3888
S'ERROR_FLAGS'
p3889
(lp3890
I1
assS'74298_HVA.mod'
p3891
(dp3892
S'ERROR_FLAGS'
p3893
(lp3894
I1
assS'113732_ca.mod'
p3895
(dp3896
S'G_VALS'
p3897
(dp3898
S'gbar_ca'
p3899
F0.1
ssS'GATES'
p3900
(dp3901
S'h'
p3902
I1
sS'm'
p3903
I2
ssS'SUFFIX'
p3904
S'ca'
p3905
sS'GMAX_NAME'
p3906
g3899
sS'STATES'
p3907
(lp3908
g3903
ag3902
asS'I_VALS'
p3909
(dp3910
F6.3
g16
(g20
S'y3\xb4z\xba\xdf\xc4>'
p3911
tp3912
Rp3913
sI37
g16
(g20
S'N\xc6\xbf\x0e\x89\xd3\x00?'
p3914
tp3915
Rp3916
ssS'ERROR_FLAGS'
p3917
(lp3918
ssS'150288_ca.mod'
p3919
(dp3920
S'G_VALS'
p3921
(dp3922
S'gbar_ca'
p3923
F0.1
ssS'GATES'
p3924
(dp3925
S'h'
p3926
I1
sS'm'
p3927
I2
ssS'SUFFIX'
p3928
S'ca'
p3929
sS'GMAX_NAME'
p3930
g3923
sS'STATES'
p3931
(lp3932
g3927
ag3926
asS'I_VALS'
p3933
(dp3934
F6.3
g16
(g20
S'{3\xb4z\xba\xdf\xc4>'
p3935
tp3936
Rp3937
sI37
g16
(g20
S'G\xc6\xbf\x0e\x89\xd3\x00?'
p3938
tp3939
Rp3940
ssS'ERROR_FLAGS'
p3941
(lp3942
ssS'184297_Ca_LVA.mod'
p3943
(dp3944
S'G_VALS'
p3945
(dp3946
S'gbar_Ca_LVA'
p3947
F1e-05
ssS'GATES'
p3948
(dp3949
S'h'
p3950
I1
sS'm'
p3951
I2
ssS'SUFFIX'
p3952
S'Ca_LVA'
p3953
sS'GMAX_NAME'
p3954
g3947
sS'STATES'
p3955
(lp3956
g3951
ag3950
asS'I_VALS'
p3957
(dp3958
F6.3
g16
(g20
S'%\x90\xe3\x88\xb5\xf8\xe4>'
p3959
tp3960
Rp3961
sI37
g16
(g20
S'\xc6\xb6\xe0\x88\xb5\xf8\xe4>'
p3962
tp3963
Rp3964
ssS'ERROR_FLAGS'
p3965
(lp3966
ssS'117207_ca.mod'
p3967
(dp3968
S'G_VALS'
p3969
(dp3970
S'gbar_ca'
p3971
F0.1
ssS'GATES'
p3972
(dp3973
S'h'
p3974
I1
sS'm'
p3975
I2
ssS'SUFFIX'
p3976
S'ca'
p3977
sS'GMAX_NAME'
p3978
g3971
sS'STATES'
p3979
(lp3980
g3975
ag3974
asS'I_VALS'
p3981
(dp3982
F6.3
g16
(g20
S'y3\xb4z\xba\xdf\xc4>'
p3983
tp3984
Rp3985
sI37
g16
(g20
S'N\xc6\xbf\x0e\x89\xd3\x00?'
p3986
tp3987
Rp3988
ssS'ERROR_FLAGS'
p3989
(lp3990
ssS'113732_catp.mod'
p3991
(dp3992
S'G_VALS'
p3993
(dp3994
S'gcatbar_catp'
p3995
F1.0
ssS'GATES'
p3996
(dp3997
S'h'
p3998
I2
sS'm'
p3999
I2
ssS'SUFFIX'
p4000
S'catp'
p4001
sS'GMAX_NAME'
p4002
g3995
sS'STATES'
p4003
(lp4004
g3999
ag3998
asS'I_VALS'
p4005
(dp4006
F6.3
g16
(g20
S'\x15\x0b\x1c\xac\x8fs\xe8?'
p4007
tp4008
Rp4009
sI37
g16
(g20
S'jY\x13$b\xdc\xe6?'
p4010
tp4011
Rp4012
ssS'ERROR_FLAGS'
p4013
(lp4014
ssS'149739_CaPN.mod'
p4015
(dp4016
S'ERROR_FLAGS'
p4017
(lp4018
I4
assS'20212_Myca.mod'
p4019
(dp4020
S'ERROR_FLAGS'
p4021
(lp4022
I4
assS'184196_Ca_LVA.mod'
p4023
(dp4024
S'G_VALS'
p4025
(dp4026
S'gbar_Ca_LVA'
p4027
F1e-05
ssS'GATES'
p4028
(dp4029
S'h'
p4030
I1
sS'm'
p4031
I2
ssS'SUFFIX'
p4032
S'Ca_LVA'
p4033
sS'GMAX_NAME'
p4034
g4027
sS'STATES'
p4035
(lp4036
g4031
ag4030
asS'I_VALS'
p4037
(dp4038
F6.3
g16
(g20
S'%\x90\xe3\x88\xb5\xf8\xe4>'
p4039
tp4040
Rp4041
sI37
g16
(g20
S'\xc6\xb6\xe0\x88\xb5\xf8\xe4>'
p4042
tp4043
Rp4044
ssS'ERROR_FLAGS'
p4045
(lp4046
ssS'150551_cat.mod'
p4047
(dp4048
S'G_VALS'
p4049
(dp4050
S'gcatbar_cat'
p4051
F1.0
ssS'GATES'
p4052
(dp4053
S'h'
p4054
I2
sS'm'
p4055
I2
ssS'SUFFIX'
p4056
S'cat'
p4057
sS'GMAX_NAME'
p4058
g4051
sS'STATES'
p4059
(lp4060
g4055
ag4054
asS'I_VALS'
p4061
(dp4062
F6.3
g16
(g20
S'\x15\x0b\x1c\xac\x8fs\xe8?'
p4063
tp4064
Rp4065
sI37
g16
(g20
S'jY\x13$b\xdc\xe6?'
p4066
tp4067
Rp4068
ssS'ERROR_FLAGS'
p4069
(lp4070
ssS'143719_cat.mod'
p4071
(dp4072
S'G_VALS'
p4073
(dp4074
S'gcatbar_cat'
p4075
F1.0
ssS'GATES'
p4076
(dp4077
S'h'
p4078
I2
sS'm'
p4079
I2
ssS'SUFFIX'
p4080
S'cat'
p4081
sS'GMAX_NAME'
p4082
g4075
sS'STATES'
p4083
(lp4084
g4079
ag4078
asS'I_VALS'
p4085
(dp4086
F6.3
g16
(g20
S'\x15\x0b\x1c\xac\x8fs\xe8?'
p4087
tp4088
Rp4089
sI37
g16
(g20
S'jY\x13$b\xdc\xe6?'
p4090
tp4091
Rp4092
ssS'ERROR_FLAGS'
p4093
(lp4094
ssS'19591_caleak.mod'
p4095
(dp4096
S'ERROR_FLAGS'
p4097
(lp4098
I3
assS'180789_cap2.mod'
p4099
(dp4100
S'ERROR_FLAGS'
p4101
(lp4102
I4
assS'20756_cal.mod'
p4103
(dp4104
S'G_VALS'
p4105
(dp4106
S'gbar_cal'
p4107
F1.0
ssS'GATES'
p4108
(dp4109
S'm'
p4110
I2
ssS'SUFFIX'
p4111
S'cal'
p4112
sS'GMAX_NAME'
p4113
g4107
sS'STATES'
p4114
(lp4115
g4110
asS'I_VALS'
p4116
(dp4117
F6.3
g16
(g20
S"\x92\xbd='\x9d\xfe\xef?"
p4118
tp4119
Rp4120
sI37
g16
(g20
S"\x92\xbd='\x9d\xfe\xef?"
p4121
tp4122
Rp4123
ssS'ERROR_FLAGS'
p4124
(lp4125
ssS'140828_caL3d.mod'
p4126
(dp4127
S'ERROR_FLAGS'
p4128
(lp4129
I5
assS'151458_car.mod'
p4130
(dp4131
S'ERROR_FLAGS'
p4132
(lp4133
I5
assS'155602_nca.mod'
p4134
(dp4135
S'G_VALS'
p4136
(dp4137
S'gncabar_nca'
p4138
F1.0
ssS'GATES'
p4139
(dp4140
S'c'
p4141
I2
sS'd'
p4142
I1
ssS'SUFFIX'
p4143
S'nca'
p4144
sS'GMAX_NAME'
p4145
g4138
sS'STATES'
p4146
(lp4147
g4141
ag4142
asS'I_VALS'
p4148
(dp4149
F6.3
g16
(g20
S']\xbd\x04\xcf\xd4\xff\xef?'
p4150
tp4151
Rp4152
sI37
g16
(g20
S'Q\xf9;\x8c\xa5\xff\xef?'
p4153
tp4154
Rp4155
ssS'ERROR_FLAGS'
p4156
(lp4157
ssS'127021_Golgi_Ca_HVA.mod'
p4158
(dp4159
S'G_VALS'
p4160
(dp4161
S'gcabar_Golgi_Ca_HVA'
p4162
F0.00046
ssS'GATES'
p4163
(dp4164
S's'
p4165
I2
sS'u'
p4166
I1
ssS'SUFFIX'
p4167
S'Golgi_Ca_HVA'
p4168
sS'GMAX_NAME'
p4169
g4162
sS'STATES'
p4170
(lp4171
g4165
ag4166
asS'I_VALS'
p4172
(dp4173
F6.3
g16
(g20
S'sW\xd8\xee\x84%>?'
p4174
tp4175
Rp4176
sI37
g16
(g20
S'W\xb1R\xb1\x84%>?'
p4177
tp4178
Rp4179
ssS'ERROR_FLAGS'
p4180
(lp4181
ssS'37819_IT2.mod'
p4182
(dp4183
S'G_VALS'
p4184
(dp4185
S'gmax_itre'
p4186
F0.003
ssS'GATES'
p4187
(dp4188
S'h'
p4189
I1
sS'm'
p4190
I2
ssS'SUFFIX'
p4191
S'itre'
p4192
sS'GMAX_NAME'
p4193
g4186
sS'STATES'
p4194
(lp4195
g4190
ag4189
asS'I_VALS'
p4196
(dp4197
F6.3
g16
(g20
S'\x9e\x08\xd63t\x93h?'
p4198
tp4199
Rp4200
sI37
g16
(g20
S'<\x9dp\\h\x93h?'
p4201
tp4202
Rp4203
ssS'ERROR_FLAGS'
p4204
(lp4205
ssS'19491_L_Ca.mod'
p4206
(dp4207
S'G_VALS'
p4208
(dp4209
S'gcabar_L_Ca'
p4210
F0.0003
ssS'GATES'
p4211
(dp4212
S'm'
p4213
I1
ssS'SUFFIX'
p4214
S'L_Ca'
p4215
sS'GMAX_NAME'
p4216
g4210
sS'STATES'
p4217
(lp4218
g4213
asS'I_VALS'
p4219
(dp4220
F6.3
g16
(g20
S'\xeb\xcd\xc3\x1d*\xa93?'
p4221
tp4222
Rp4223
sI37
g16
(g20
S'\xeb\xcd\xc3\x1d*\xa93?'
p4224
tp4225
Rp4226
ssS'ERROR_FLAGS'
p4227
(lp4228
ssS'20212_ITGHK.mod'
p4229
(dp4230
S'ERROR_FLAGS'
p4231
(lp4232
I5
assS'126814_cat.mod'
p4233
(dp4234
S'G_VALS'
p4235
(dp4236
S'gcatbar_cat'
p4237
F0.003
ssS'GATES'
p4238
(dp4239
S'h'
p4240
I1
sS'm'
p4241
I2
ssS'SUFFIX'
p4242
S'cat'
p4243
sS'GMAX_NAME'
p4244
g4237
sS'STATES'
p4245
(lp4246
g4241
ag4240
asS'I_VALS'
p4247
(dp4248
F6.3
g16
(g20
S'\xda\xf5\r\xd3\xe2\xa7P?'
p4249
tp4250
Rp4251
sI37
g16
(g20
S'u1\x13\x8f\xb2%O?'
p4252
tp4253
Rp4254
ssS'ERROR_FLAGS'
p4255
(lp4256
ssS'144490_cal_v2.mod'
p4257
(dp4258
S'G_VALS'
p4259
(dp4260
S'gcalbar_cal'
p4261
F1.0
ssS'GATES'
p4262
(dp4263
S'm'
p4264
I1
ssS'SUFFIX'
p4265
S'cal'
p4266
sS'GMAX_NAME'
p4267
g4261
sS'STATES'
p4268
(lp4269
g4264
asS'I_VALS'
p4270
(dp4271
F6.3
g16
(g20
S'0\x02q\xf4\x814\xd1?'
p4272
tp4273
Rp4274
sI37
g16
(g20
S'$\\>\xa2\xa8\x05\xd0?'
p4275
tp4276
Rp4277
ssS'ERROR_FLAGS'
p4278
(lp4279
ssS'112546_cat.mod'
p4280
(dp4281
S'G_VALS'
p4282
(dp4283
S'gcatbar_cat'
p4284
F0.003
ssS'GATES'
p4285
(dp4286
S'h'
p4287
I1
sS'm'
p4288
I2
ssS'SUFFIX'
p4289
S'cat'
p4290
sS'GMAX_NAME'
p4291
g4284
sS'STATES'
p4292
(lp4293
g4288
ag4287
asS'I_VALS'
p4294
(dp4295
F6.3
g16
(g20
S'y\x8f\x9e\x85\x8d\x1fP?'
p4296
tp4297
Rp4298
sI37
g16
(g20
S'\xa2\xc4q\x81\xf9\rN?'
p4299
tp4300
Rp4301
ssS'ERROR_FLAGS'
p4302
(lp4303
ssS'119266_car.mod'
p4304
(dp4305
S'G_VALS'
p4306
(dp4307
S'gcabar_car'
p4308
F1.0
ssS'GATES'
p4309
(dp4310
S'h'
p4311
I1
sS'm'
p4312
I2
ssS'SUFFIX'
p4313
S'car'
p4314
sS'GMAX_NAME'
p4315
g4308
sS'STATES'
p4316
(lp4317
g4312
ag4311
asS'I_VALS'
p4318
(dp4319
F6.3
g16
(g20
S'"Qh\x1c\xec\xff\xef?'
p4320
tp4321
Rp4322
sI37
g16
(g20
S'`\xdf\xe4\xaf\xb8\xff\xef?'
p4323
tp4324
Rp4325
ssS'ERROR_FLAGS'
p4326
(lp4327
ssS'53965_IT2_v2.mod'
p4328
(dp4329
S'G_VALS'
p4330
(dp4331
S'gcabar_it2'
p4332
F0.0008
ssS'GATES'
p4333
(dp4334
S'h'
p4335
I1
sS'm'
p4336
I2
ssS'SUFFIX'
p4337
S'it2'
p4338
sS'GMAX_NAME'
p4339
g4332
sS'STATES'
p4340
(lp4341
g4336
ag4335
asS'I_VALS'
p4342
(dp4343
F6.3
g16
(g20
S'<M[\xa9\xdd6J?'
p4344
tp4345
Rp4346
sI37
g16
(g20
S'\xbaC+\x1f\xdd6J?'
p4347
tp4348
Rp4349
ssS'ERROR_FLAGS'
p4350
(lp4351
ssS'114685_HVA.mod'
p4352
(dp4353
S'ERROR_FLAGS'
p4354
(lp4355
I8
assS'74298_CaT.mod'
p4356
(dp4357
S'ERROR_FLAGS'
p4358
(lp4359
I1
assS'113732_cat.mod'
p4360
(dp4361
S'G_VALS'
p4362
(dp4363
S'gbar_cat'
p4364
F1.0
ssS'GATES'
p4365
(dp4366
S'h'
p4367
I1
sS'm'
p4368
I2
ssS'SUFFIX'
p4369
S'cat'
p4370
sS'GMAX_NAME'
p4371
g4364
sS'STATES'
p4372
(lp4373
g4368
ag4367
asS'I_VALS'
p4374
(dp4375
F6.3
g16
(g20
S'\xbbe\xb9 \xe1\xfd\xef?'
p4376
tp4377
Rp4378
sI37
g16
(g20
S'\xbbe\xb9 \xe1\xfd\xef?'
p4379
tp4380
Rp4381
ssS'ERROR_FLAGS'
p4382
(lp4383
ssS'144482_ca.mod'
p4384
(dp4385
S'G_VALS'
p4386
(dp4387
S'gbar_ca'
p4388
F0.008
ssS'GATES'
p4389
(dp4390
S'h'
p4391
I1
sS'm'
p4392
I2
ssS'SUFFIX'
p4393
S'ca'
p4394
sS'GMAX_NAME'
p4395
g4388
sS'STATES'
p4396
(lp4397
g4392
ag4391
asS'I_VALS'
p4398
(dp4399
F6.3
g16
(g20
S'\x96\x1c[=(\xd4}>'
p4400
tp4401
Rp4402
sI37
g16
(g20
S'\x0f\xdbvzq\x0b\xb8>'
p4403
tp4404
Rp4405
ssS'ERROR_FLAGS'
p4406
(lp4407
ssS'143719_cal.mod'
p4408
(dp4409
S'G_VALS'
p4410
(dp4411
S'gcalbar_cal'
p4412
F1.0
ssS'GATES'
p4413
(dp4414
S'm'
p4415
I1
ssS'SUFFIX'
p4416
S'cal'
p4417
sS'GMAX_NAME'
p4418
g4412
sS'STATES'
p4419
(lp4420
g4415
asS'I_VALS'
p4421
(dp4422
F6.3
g16
(g20
S'0\x02q\xf4\x814\xd1?'
p4423
tp4424
Rp4425
sI37
g16
(g20
S'$\\>\xa2\xa8\x05\xd0?'
p4426
tp4427
Rp4428
ssS'ERROR_FLAGS'
p4429
(lp4430
ssS'116862_ntt.mod'
p4431
(dp4432
S'G_VALS'
p4433
(dp4434
S'gcabar_it2'
p4435
F0.024
ssS'GATES'
p4436
(dp4437
S'h'
p4438
I1
sS'm'
p4439
I2
ssS'SUFFIX'
p4440
S'it2'
p4441
sS'GMAX_NAME'
p4442
g4435
sS'STATES'
p4443
(lp4444
g4439
ag4438
asS'I_VALS'
p4445
(dp4446
F6.3
g16
(g20
S'\x9a\x9e\xb0x\x80\x0c\xb4?'
p4447
tp4448
Rp4449
sI37
g16
(g20
S'm,Uo\x8f\xb8t?'
p4450
tp4451
Rp4452
ssS'ERROR_FLAGS'
p4453
(lp4454
ssS'150538_SlowCa.mod'
p4455
(dp4456
S'G_VALS'
p4457
(dp4458
S'gbar_sca'
p4459
F0.1
ssS'GATES'
p4460
(dp4461
S'h'
p4462
I1
sS'm'
p4463
I2
ssS'SUFFIX'
p4464
S'sca'
p4465
sS'GMAX_NAME'
p4466
g4459
sS'STATES'
p4467
(lp4468
g4463
ag4462
asS'I_VALS'
p4469
(dp4470
F6.3
g16
(g20
S'{3\xb4z\xba\xdf\xc4>'
p4471
tp4472
Rp4473
sI37
g16
(g20
S'@\xc6\xbf\x0e\x89\xd3\x00?'
p4474
tp4475
Rp4476
ssS'ERROR_FLAGS'
p4477
(lp4478
ssS'150240_IT.mod'
p4479
(dp4480
S'G_VALS'
p4481
(dp4482
S'gcabar_it'
p4483
F0.002
ssS'GATES'
p4484
(dp4485
S'h'
p4486
I1
ssS'SUFFIX'
p4487
S'it'
p4488
sS'GMAX_NAME'
p4489
g4483
sS'STATES'
p4490
(lp4491
g4486
asS'I_VALS'
p4492
(dp4493
F6.3
g16
(g20
S'l\x15-`A\xdf#?'
p4494
tp4495
Rp4496
sI37
g16
(g20
S'\x8e~\x13y\x07\xec#?'
p4497
tp4498
Rp4499
ssS'ERROR_FLAGS'
p4500
(lp4501
ssS'144401_cal.mod'
p4502
(dp4503
S'G_VALS'
p4504
(dp4505
S'gbar_cal'
p4506
F1.0
ssS'GATES'
p4507
(dp4508
S'm'
p4509
I2
ssS'SUFFIX'
p4510
S'cal'
p4511
sS'GMAX_NAME'
p4512
g4506
sS'STATES'
p4513
(lp4514
g4509
asS'I_VALS'
p4515
(dp4516
F6.3
g16
(g20
S"\x92\xbd='\x9d\xfe\xef?"
p4517
tp4518
Rp4519
sI37
g16
(g20
S"\x92\xbd='\x9d\xfe\xef?"
p4520
tp4521
Rp4522
ssS'ERROR_FLAGS'
p4523
(lp4524
ssS'19491_N_Ca.mod'
p4525
(dp4526
S'G_VALS'
p4527
(dp4528
S'gcabar_N_Ca'
p4529
F0.0005
ssS'GATES'
p4530
(dp4531
S'h'
p4532
I1
sS'm'
p4533
I2
ssS'SUFFIX'
p4534
S'N_Ca'
p4535
sS'GMAX_NAME'
p4536
g4529
sS'STATES'
p4537
(lp4538
g4533
ag4532
asS'I_VALS'
p4539
(dp4540
F6.3
g16
(g20
S'd\xc9\xf0\xd2Mb@?'
p4541
tp4542
Rp4543
sI37
g16
(g20
S'd\xc9\xf0\xd2Mb@?'
p4544
tp4545
Rp4546
ssS'ERROR_FLAGS'
p4547
(lp4548
ssS'115356_CAl.mod'
p4549
(dp4550
S'ERROR_FLAGS'
p4551
(lp4552
I5
assS'123623_IT_huguenard.mod'
p4553
(dp4554
S'G_VALS'
p4555
(dp4556
S'gcabar_it'
p4557
F0.002
ssS'GATES'
p4558
(dp4559
S'h'
p4560
I1
ssS'SUFFIX'
p4561
S'it'
p4562
sS'GMAX_NAME'
p4563
g4557
sS'STATES'
p4564
(lp4565
g4560
asS'I_VALS'
p4566
(dp4567
F6.3
g16
(g20
S'pH,`A\xdf#?'
p4568
tp4569
Rp4570
sI37
g16
(g20
S'1}Iv\x07\xec#?'
p4571
tp4572
Rp4573
ssS'ERROR_FLAGS'
p4574
(lp4575
ssS'3670_IT2.mod'
p4576
(dp4577
S'G_VALS'
p4578
(dp4579
S'gcabar_it2'
p4580
F0.00175
ssS'GATES'
p4581
(dp4582
S'h'
p4583
I1
sS'm'
p4584
I2
ssS'SUFFIX'
p4585
S'it2'
p4586
sS'GMAX_NAME'
p4587
g4580
sS'STATES'
p4588
(lp4589
g4584
ag4583
asS'I_VALS'
p4590
(dp4591
F6.3
g16
(g20
S'\xa8\xbb\\\x96\x0b\xac\\?'
p4592
tp4593
Rp4594
sI37
g16
(g20
S'w\xd5KN\x04\xac\\?'
p4595
tp4596
Rp4597
ssS'ERROR_FLAGS'
p4598
(lp4599
ssS'123815_LcaMig.mod'
p4600
(dp4601
S'G_VALS'
p4602
(dp4603
S'glcabar_lca'
p4604
F1.0
ssS'GATES'
p4605
(dp4606
S'm'
p4607
I2
ssS'SUFFIX'
p4608
S'lca'
p4609
sS'GMAX_NAME'
p4610
g4604
sS'STATES'
p4611
(lp4612
g4607
asS'I_VALS'
p4613
(dp4614
F6.3
g16
(g20
S'\xd3\xdc\xe9rm\xa9\xd4?'
p4615
tp4616
Rp4617
sI37
g16
(g20
S'vY\x1b\x07\xcbQ\xd3?'
p4618
tp4619
Rp4620
ssS'ERROR_FLAGS'
p4621
(lp4622
ssS'155735_CaT.mod'
p4623
(dp4624
S'G_VALS'
p4625
(dp4626
S'gcabar_CaT'
p4627
F0.0005
ssS'GATES'
p4628
(dp4629
S'h'
p4630
I1
sS'm'
p4631
I1
ssS'SUFFIX'
p4632
S'CaT'
p4633
sS'GMAX_NAME'
p4634
g4627
sS'STATES'
p4635
(lp4636
g4631
ag4630
asS'I_VALS'
p4637
(dp4638
F6.3
g16
(g20
S'(*U\xfdMb@?'
p4639
tp4640
Rp4641
sI37
g16
(g20
S'\x1c}\xfbKMb@?'
p4642
tp4643
Rp4644
ssS'ERROR_FLAGS'
p4645
(lp4646
ssS'181967_can2.mod'
p4647
(dp4648
S'G_VALS'
p4649
(dp4650
S'gcanbar_can'
p4651
F0.0003
ssS'GATES'
p4652
(dp4653
S'h'
p4654
I2
sS'm'
p4655
I2
ssS'SUFFIX'
p4656
S'can'
p4657
sS'GMAX_NAME'
p4658
g4651
sS'STATES'
p4659
(lp4660
g4655
ag4654
asS'I_VALS'
p4661
(dp4662
F6.3
g16
(g20
S'\x0e$\xa8R_\xa6\x1a?'
p4663
tp4664
Rp4665
sI37
g16
(g20
S'\x07\xce\xb1\xdf%\xeb\x18?'
p4666
tp4667
Rp4668
ssS'ERROR_FLAGS'
p4669
(lp4670
ssS'147867_can2.mod'
p4671
(dp4672
S'G_VALS'
p4673
(dp4674
S'gcanbar_can'
p4675
F0.0003
ssS'GATES'
p4676
(dp4677
S'h'
p4678
I2
sS'm'
p4679
I2
ssS'SUFFIX'
p4680
S'can'
p4681
sS'GMAX_NAME'
p4682
g4675
sS'STATES'
p4683
(lp4684
g4679
ag4678
asS'I_VALS'
p4685
(dp4686
F6.3
g16
(g20
S'\xf15{\xa5!\xa7\x1a?'
p4687
tp4688
Rp4689
sI37
g16
(g20
S'\x99\x1d+\x93\xdb\xeb\x18?'
p4690
tp4691
Rp4692
ssS'ERROR_FLAGS'
p4693
(lp4694
ssS'143604_ca_a1g.mod'
p4695
(dp4696
S'G_VALS'
p4697
(dp4698
S'gbar_cat1g'
p4699
F0.008
ssS'GATES'
p4700
(dp4701
S'l'
p4702
I2
sS'n'
p4703
I1
ssS'SUFFIX'
p4704
S'cat1g'
p4705
sS'GMAX_NAME'
p4706
g4699
sS'STATES'
p4707
(lp4708
g4703
ag4702
asS'I_VALS'
p4709
(dp4710
F6.3
g16
(g20
S'\x07\x840\xd6\xcb\xef\xd6?'
p4711
tp4712
Rp4713
sI37
g16
(g20
S'\x0b\xc4\x90\xfd\xf0w\xd7?'
p4714
tp4715
Rp4716
ssS'ERROR_FLAGS'
p4717
(lp4718
ssS'17664_CaT.mod'
p4719
(dp4720
S'G_VALS'
p4721
(dp4722
S'gcabar_CaT'
p4723
F0.0005
ssS'GATES'
p4724
(dp4725
S'h'
p4726
I1
sS'm'
p4727
I1
ssS'SUFFIX'
p4728
S'CaT'
p4729
sS'GMAX_NAME'
p4730
g4723
sS'STATES'
p4731
(lp4732
g4727
ag4726
asS'I_VALS'
p4733
(dp4734
F6.3
g16
(g20
S'\xf2\xd3\x97\xfdMb@?'
p4735
tp4736
Rp4737
sI37
g16
(g20
S'l\xce\xf0EMb@?'
p4738
tp4739
Rp4740
ssS'ERROR_FLAGS'
p4741
(lp4742
ssS'185332_Can.mod'
p4743
(dp4744
S'G_VALS'
p4745
(dp4746
S'gbar_CAn'
p4747
F0.0003
ssS'GATES'
p4748
(dp4749
S'h'
p4750
I2
sS'm'
p4751
I2
ssS'SUFFIX'
p4752
S'CAn'
p4753
sS'GMAX_NAME'
p4754
g4747
sS'STATES'
p4755
(lp4756
g4751
ag4750
asS'I_VALS'
p4757
(dp4758
F6.3
g16
(g20
S'\xa3\xa4\xd2,\x87\xa6\x1a?'
p4759
tp4760
Rp4761
sI37
g16
(g20
S'\xb6\xe6\x9b#K\xeb\x18?'
p4762
tp4763
Rp4764
ssS'ERROR_FLAGS'
p4765
(lp4766
ssS'64229_lcafixed.mod'
p4767
(dp4768
S'G_VALS'
p4769
(dp4770
S'gcabar_lcafixed'
p4771
F0.12
ssS'GATES'
p4772
(dp4773
S's'
p4774
I1
sS'r'
p4775
I1
ssS'SUFFIX'
p4776
S'lcafixed'
p4777
sS'GMAX_NAME'
p4778
g4771
sS'STATES'
p4779
(lp4780
g4775
ag4774
asS'I_VALS'
p4781
(dp4782
F6.3
g16
(g20
S'\xb7\x03 ],\xb8\xbe?'
p4783
tp4784
Rp4785
sI37
g16
(g20
S'\xb7\x03 ],\xb8\xbe?'
p4786
tp4787
Rp4788
ssS'ERROR_FLAGS'
p4789
(lp4790
ssS'155568_nca.mod'
p4791
(dp4792
S'G_VALS'
p4793
(dp4794
S'gncabar_nca'
p4795
F1.0
ssS'GATES'
p4796
(dp4797
S'c'
p4798
I2
sS'd'
p4799
I1
ssS'SUFFIX'
p4800
S'nca'
p4801
sS'GMAX_NAME'
p4802
g4795
sS'STATES'
p4803
(lp4804
g4798
ag4799
asS'I_VALS'
p4805
(dp4806
F6.3
g16
(g20
S']\xbd\x04\xcf\xd4\xff\xef?'
p4807
tp4808
Rp4809
sI37
g16
(g20
S'Q\xf9;\x8c\xa5\xff\xef?'
p4810
tp4811
Rp4812
ssS'ERROR_FLAGS'
p4813
(lp4814
ssS'19920_ca_a1i.mod'
p4815
(dp4816
S'ERROR_FLAGS'
p4817
(lp4818
I8
assS'51781_nca.mod'
p4819
(dp4820
S'G_VALS'
p4821
(dp4822
S'gncabar_nca'
p4823
F1.0
ssS'GATES'
p4824
(dp4825
S'c'
p4826
I2
sS'd'
p4827
I1
ssS'SUFFIX'
p4828
S'nca'
p4829
sS'GMAX_NAME'
p4830
g4823
sS'STATES'
p4831
(lp4832
g4826
ag4827
asS'I_VALS'
p4833
(dp4834
F6.3
g16
(g20
S']\xbd\x04\xcf\xd4\xff\xef?'
p4835
tp4836
Rp4837
sI37
g16
(g20
S'Q\xf9;\x8c\xa5\xff\xef?'
p4838
tp4839
Rp4840
ssS'ERROR_FLAGS'
p4841
(lp4842
ssS'64228_Ca.mod'
p4843
(dp4844
S'G_VALS'
p4845
(dp4846
S'gCabar_Ca'
p4847
F2.0
ssS'GATES'
p4848
(dp4849
S'hCa'
p4850
I1
sS'mCa'
p4851
I1
ssS'SUFFIX'
p4852
S'Ca'
p4853
sS'GMAX_NAME'
p4854
g4847
sS'STATES'
p4855
(lp4856
g4851
ag4850
asS'I_VALS'
p4857
(dp4858
F6.3
g16
(g20
S'\x0f\xbc\x84qJb`?'
p4859
tp4860
Rp4861
sI37
g16
(g20
S'\x0f\xbc\x84qJb`?'
p4862
tp4863
Rp4864
ssS'ERROR_FLAGS'
p4865
(lp4866
ssS'184178_Ca_LVA.mod'
p4867
(dp4868
S'G_VALS'
p4869
(dp4870
S'gbar_Ca_LVA'
p4871
F1e-05
ssS'GATES'
p4872
(dp4873
S'h'
p4874
I1
sS'm'
p4875
I2
ssS'SUFFIX'
p4876
S'Ca_LVA'
p4877
sS'GMAX_NAME'
p4878
g4871
sS'STATES'
p4879
(lp4880
g4875
ag4874
asS'I_VALS'
p4881
(dp4882
F6.3
g16
(g20
S'%\x90\xe3\x88\xb5\xf8\xe4>'
p4883
tp4884
Rp4885
sI37
g16
(g20
S'\xc6\xb6\xe0\x88\xb5\xf8\xe4>'
p4886
tp4887
Rp4888
ssS'ERROR_FLAGS'
p4889
(lp4890
ssS'168858_cal.mod'
p4891
(dp4892
S'G_VALS'
p4893
(dp4894
S'gbar_cal'
p4895
F1.0
ssS'GATES'
p4896
(dp4897
S'm'
p4898
I2
ssS'SUFFIX'
p4899
S'cal'
p4900
sS'GMAX_NAME'
p4901
g4895
sS'STATES'
p4902
(lp4903
g4898
asS'I_VALS'
p4904
(dp4905
F6.3
g16
(g20
S'\x01\x068)\x9d\xfe\xef?'
p4906
tp4907
Rp4908
sI37
g16
(g20
S'\x01\x068)\x9d\xfe\xef?'
p4909
tp4910
Rp4911
ssS'ERROR_FLAGS'
p4912
(lp4913
ssS'110560_calcium.mod'
p4914
(dp4915
S'G_VALS'
p4916
(dp4917
S'gbar_Calcium'
p4918
F150.0
ssS'GATES'
p4919
(dp4920
S'n'
p4921
I1
ssS'SUFFIX'
p4922
S'Calcium'
p4923
sS'GMAX_NAME'
p4924
g4918
sS'STATES'
p4925
(lp4926
g4921
asS'I_VALS'
p4927
(dp4928
F6.3
g16
(g20
S'j\x1b\x1csJ\xb7\x8e?'
p4929
tp4930
Rp4931
sI37
g16
(g20
S'j\x1b\x1csJ\xb7\x8e?'
p4932
tp4933
Rp4934
ssS'ERROR_FLAGS'
p4935
(lp4936
ssS'144579_cat.mod'
p4937
(dp4938
S'G_VALS'
p4939
(dp4940
S'gbar_cat'
p4941
F1.0
ssS'GATES'
p4942
(dp4943
S'h'
p4944
I1
sS'm'
p4945
I2
ssS'SUFFIX'
p4946
S'cat'
p4947
sS'GMAX_NAME'
p4948
g4941
sS'STATES'
p4949
(lp4950
g4945
ag4944
asS'I_VALS'
p4951
(dp4952
F6.3
g16
(g20
S'\xbbe\xb9 \xe1\xfd\xef?'
p4953
tp4954
Rp4955
sI37
g16
(g20
S'\xbbe\xb9 \xe1\xfd\xef?'
p4956
tp4957
Rp4958
ssS'ERROR_FLAGS'
p4959
(lp4960
ssS'124043_it2.mod'
p4961
(dp4962
S'G_VALS'
p4963
(dp4964
S'gcabar_it2'
p4965
F0.0008
ssS'GATES'
p4966
(dp4967
S'h'
p4968
I1
sS'm'
p4969
I2
ssS'SUFFIX'
p4970
S'it2'
p4971
sS'GMAX_NAME'
p4972
g4965
sS'STATES'
p4973
(lp4974
g4969
ag4968
asS'I_VALS'
p4975
(dp4976
F6.3
g16
(g20
S'\x03\xeb\xb4N\xe26J?'
p4977
tp4978
Rp4979
sI37
g16
(g20
S'\x03\xeb\xb4N\xe26J?'
p4980
tp4981
Rp4982
ssS'ERROR_FLAGS'
p4983
(lp4984
ssS'137259_cal2.mod'
p4985
(dp4986
S'G_VALS'
p4987
(dp4988
S'gcalbar_cal'
p4989
F0.003
ssS'GATES'
p4990
(dp4991
S'm'
p4992
I2
ssS'SUFFIX'
p4993
S'cal'
p4994
sS'GMAX_NAME'
p4995
g4989
sS'STATES'
p4996
(lp4997
g4992
asS'I_VALS'
p4998
(dp4999
F6.3
g16
(g20
S"\xa5'\xfd\xa1\x8f\xbcO?"
p5000
tp5001
Rp5002
sI37
g16
(g20
S"q'\xb8\x0f\xbd\xacM?"
p5003
tp5004
Rp5005
ssS'ERROR_FLAGS'
p5006
(lp5007
ssS'153280_ch_CavLZ.mod'
p5008
(dp5009
S'G_VALS'
p5010
(dp5011
S'gmax_ch_CavLZ'
p5012
F1.0
ssS'GATES'
p5013
(dp5014
S'm'
p5015
I2
ssS'SUFFIX'
p5016
S'ch_CavLZ'
p5017
sS'GMAX_NAME'
p5018
g5012
sS'STATES'
p5019
(lp5020
g5015
asS'I_VALS'
p5021
(dp5022
F6.3
g16
(g20
S'\xd3\xdc\xe9rm\xa9\xd4?'
p5023
tp5024
Rp5025
sI37
g16
(g20
S'vY\x1b\x07\xcbQ\xd3?'
p5026
tp5027
Rp5028
ssS'ERROR_FLAGS'
p5029
(lp5030
ssS'139653_Ca_HVA.mod'
p5031
(dp5032
S'G_VALS'
p5033
(dp5034
S'gCa_HVAbar_Ca_HVA'
p5035
F1e-05
ssS'GATES'
p5036
(dp5037
S'h'
p5038
I1
sS'm'
p5039
I2
ssS'SUFFIX'
p5040
S'Ca_HVA'
p5041
sS'GMAX_NAME'
p5042
g5035
sS'STATES'
p5043
(lp5044
g5039
ag5038
asS'I_VALS'
p5045
(dp5046
F6.3
g16
(g20
S'\x1dT\xe3\x88\xb5\xf8\xe4>'
p5047
tp5048
Rp5049
sI37
g16
(g20
S'\x1dT\xe3\x88\xb5\xf8\xe4>'
p5050
tp5051
Rp5052
ssS'ERROR_FLAGS'
p5053
(lp5054
ssS'123815_cat.mod'
p5055
(dp5056
S'G_VALS'
p5057
(dp5058
S'gcatbar_cat'
p5059
F1.0
ssS'GATES'
p5060
(dp5061
S'h'
p5062
I2
sS'm'
p5063
I2
ssS'SUFFIX'
p5064
S'cat'
p5065
sS'GMAX_NAME'
p5066
g5059
sS'STATES'
p5067
(lp5068
g5063
ag5062
asS'I_VALS'
p5069
(dp5070
F6.3
g16
(g20
S'\x15\x0b\x1c\xac\x8fs\xe8?'
p5071
tp5072
Rp5073
sI37
g16
(g20
S'jY\x13$b\xdc\xe6?'
p5074
tp5075
Rp5076
ssS'ERROR_FLAGS'
p5077
(lp5078
ssS'138382_CaT3_1_DP.mod'
p5079
(dp5080
S'ERROR_FLAGS'
p5081
(lp5082
I5
assS'116862_IT.mod'
p5083
(dp5084
S'G_VALS'
p5085
(dp5086
S'gmax_ittc'
p5087
F0.0022
ssS'GATES'
p5088
(dp5089
S'h'
p5090
I1
sS'm'
p5091
I2
ssS'SUFFIX'
p5092
S'ittc'
p5093
sS'GMAX_NAME'
p5094
g5087
sS'STATES'
p5095
(lp5096
g5091
ag5090
asS'I_VALS'
p5097
(dp5098
F6.3
g16
(g20
S'\xd8O, \xbc\x05b?'
p5099
tp5100
Rp5101
sI37
g16
(g20
S'\xdcR\xaf\xbd\xb9\x05b?'
p5102
tp5103
Rp5104
ssS'ERROR_FLAGS'
p5105
(lp5106
ssS'95870_Ca.mod'
p5107
(dp5108
S'G_VALS'
p5109
(dp5110
S'gCabar_Ca'
p5111
F2.0
ssS'GATES'
p5112
(dp5113
S'hCa'
p5114
I1
sS'mCa'
p5115
I1
ssS'SUFFIX'
p5116
S'Ca'
p5117
sS'GMAX_NAME'
p5118
g5111
sS'STATES'
p5119
(lp5120
g5115
ag5114
asS'I_VALS'
p5121
(dp5122
F6.3
g16
(g20
S'\x0f\xbc\x84qJb`?'
p5123
tp5124
Rp5125
sI37
g16
(g20
S'\x0f\xbc\x84qJb`?'
p5126
tp5127
Rp5128
ssS'ERROR_FLAGS'
p5129
(lp5130
ssS'20212_cachan.mod'
p5131
(dp5132
S'ERROR_FLAGS'
p5133
(lp5134
I5
assS'144490_car_mag.mod'
p5135
(dp5136
S'ERROR_FLAGS'
p5137
(lp5138
I1
assS'184348_Ca_HVA.mod'
p5139
(dp5140
S'G_VALS'
p5141
(dp5142
S'gbar_Ca_HVA'
p5143
F1e-05
ssS'GATES'
p5144
(dp5145
S'h'
p5146
I1
sS'm'
p5147
I2
ssS'SUFFIX'
p5148
S'Ca_HVA'
p5149
sS'GMAX_NAME'
p5150
g5143
sS'STATES'
p5151
(lp5152
g5147
ag5146
asS'I_VALS'
p5153
(dp5154
F6.3
g16
(g20
S'\x1dT\xe3\x88\xb5\xf8\xe4>'
p5155
tp5156
Rp5157
sI37
g16
(g20
S'\x1dT\xe3\x88\xb5\xf8\xe4>'
p5158
tp5159
Rp5160
ssS'ERROR_FLAGS'
p5161
(lp5162
ssS'184352_Ca_LVA.mod'
p5163
(dp5164
S'G_VALS'
p5165
(dp5166
S'gbar_Ca_LVA'
p5167
F1e-05
ssS'GATES'
p5168
(dp5169
S'h'
p5170
I1
sS'm'
p5171
I2
ssS'SUFFIX'
p5172
S'Ca_LVA'
p5173
sS'GMAX_NAME'
p5174
g5167
sS'STATES'
p5175
(lp5176
g5171
ag5170
asS'I_VALS'
p5177
(dp5178
F6.3
g16
(g20
S'%\x90\xe3\x88\xb5\xf8\xe4>'
p5179
tp5180
Rp5181
sI37
g16
(g20
S'\xc6\xb6\xe0\x88\xb5\xf8\xe4>'
p5182
tp5183
Rp5184
ssS'ERROR_FLAGS'
p5185
(lp5186
ssS'144579_cat_a.mod'
p5187
(dp5188
S'G_VALS'
p5189
(dp5190
S'gbar_cat_a'
p5191
F1.0
ssS'GATES'
p5192
(dp5193
S'h'
p5194
I1
sS'm'
p5195
I2
ssS'SUFFIX'
p5196
S'cat_a'
p5197
sS'GMAX_NAME'
p5198
g5191
sS'STATES'
p5199
(lp5200
g5195
ag5194
asS'I_VALS'
p5201
(dp5202
F6.3
g16
(g20
S'[B\x85\x02\x11\xfe\xef?'
p5203
tp5204
Rp5205
sI37
g16
(g20
S'[B\x85\x02\x11\xfe\xef?'
p5206
tp5207
Rp5208
ssS'ERROR_FLAGS'
p5209
(lp5210
ssS'184196_Ca_HVA.mod'
p5211
(dp5212
S'G_VALS'
p5213
(dp5214
S'gbar_Ca_HVA'
p5215
F1e-05
ssS'GATES'
p5216
(dp5217
S'h'
p5218
I1
sS'm'
p5219
I2
ssS'SUFFIX'
p5220
S'Ca_HVA'
p5221
sS'GMAX_NAME'
p5222
g5215
sS'STATES'
p5223
(lp5224
g5219
ag5218
asS'I_VALS'
p5225
(dp5226
F6.3
g16
(g20
S'\x1dT\xe3\x88\xb5\xf8\xe4>'
p5227
tp5228
Rp5229
sI37
g16
(g20
S'\x1dT\xe3\x88\xb5\xf8\xe4>'
p5230
tp5231
Rp5232
ssS'ERROR_FLAGS'
p5233
(lp5234
ssS'53569_CaP.mod'
p5235
(dp5236
S'G_VALS'
p5237
(dp5238
S'gcabar_CaP'
p5239
F2e-05
ssS'GATES'
p5240
(dp5241
S'm'
p5242
I2
ssS'SUFFIX'
p5243
S'CaP'
p5244
sS'GMAX_NAME'
p5245
g5239
sS'STATES'
p5246
(lp5247
g5242
asS'I_VALS'
p5248
(dp5249
F6.3
g16
(g20
S'r\x81T\xde\xb7\xf8\xf4>'
p5250
tp5251
Rp5252
sI37
g16
(g20
S'%\x98\xce\xa5\xb7\xf8\xf4>'
p5253
tp5254
Rp5255
ssS'ERROR_FLAGS'
p5256
(lp5257
ssS'64296_lcafixed.mod'
p5258
(dp5259
S'G_VALS'
p5260
(dp5261
S'gcabar_lcafixed'
p5262
F0.12
ssS'GATES'
p5263
(dp5264
S's'
p5265
I1
sS'r'
p5266
I1
ssS'SUFFIX'
p5267
S'lcafixed'
p5268
sS'GMAX_NAME'
p5269
g5262
sS'STATES'
p5270
(lp5271
g5266
ag5265
asS'I_VALS'
p5272
(dp5273
F6.3
g16
(g20
S'\xb7\x03 ],\xb8\xbe?'
p5274
tp5275
Rp5276
sI37
g16
(g20
S'\xb7\x03 ],\xb8\xbe?'
p5277
tp5278
Rp5279
ssS'ERROR_FLAGS'
p5280
(lp5281
ssS'112685_Golgi_Ca_LVA.mod'
p5282
(dp5283
S'ERROR_FLAGS'
p5284
(lp5285
I8
assS'150284_car.mod'
p5286
(dp5287
S'ERROR_FLAGS'
p5288
(lp5289
I5
assS'37819_ca.mod'
p5290
(dp5291
S'G_VALS'
p5292
(dp5293
S'gmax_Nca'
p5294
F0.1
ssS'GATES'
p5295
(dp5296
S'h'
p5297
I1
sS'm'
p5298
I2
ssS'SUFFIX'
p5299
S'Nca'
p5300
sS'GMAX_NAME'
p5301
g5294
sS'STATES'
p5302
(lp5303
g5298
ag5297
asS'I_VALS'
p5304
(dp5305
F6.3
g16
(g20
S']3\xb4z\xba\xdf\xc4>'
p5306
tp5307
Rp5308
sI37
g16
(g20
S'\x15\xbf\xbf\x0e\x89\xd3\x00?'
p5309
tp5310
Rp5311
ssS'ERROR_FLAGS'
p5312
(lp5313
ssS'184184_Ca_HVA.mod'
p5314
(dp5315
S'G_VALS'
p5316
(dp5317
S'gbar_Ca_HVA'
p5318
F1e-05
ssS'GATES'
p5319
(dp5320
S'h'
p5321
I1
sS'm'
p5322
I2
ssS'SUFFIX'
p5323
S'Ca_HVA'
p5324
sS'GMAX_NAME'
p5325
g5318
sS'STATES'
p5326
(lp5327
g5322
ag5321
asS'I_VALS'
p5328
(dp5329
F6.3
g16
(g20
S'\x1dT\xe3\x88\xb5\xf8\xe4>'
p5330
tp5331
Rp5332
sI37
g16
(g20
S'\x1dT\xe3\x88\xb5\xf8\xe4>'
p5333
tp5334
Rp5335
ssS'ERROR_FLAGS'
p5336
(lp5337
ssS'124513_LcaMig.mod'
p5338
(dp5339
S'G_VALS'
p5340
(dp5341
S'glcabar_lca'
p5342
F1.0
ssS'GATES'
p5343
(dp5344
S'm'
p5345
I2
ssS'SUFFIX'
p5346
S'lca'
p5347
sS'GMAX_NAME'
p5348
g5342
sS'STATES'
p5349
(lp5350
g5345
asS'I_VALS'
p5351
(dp5352
F6.3
g16
(g20
S'\xd3\xdc\xe9rm\xa9\xd4?'
p5353
tp5354
Rp5355
sI37
g16
(g20
S'vY\x1b\x07\xcbQ\xd3?'
p5356
tp5357
Rp5358
ssS'ERROR_FLAGS'
p5359
(lp5360
ssS'140249_it2.mod'
p5361
(dp5362
S'G_VALS'
p5363
(dp5364
S'gcabar_it2'
p5365
F8.5e-06
ssS'GATES'
p5366
(dp5367
S'h'
p5368
I1
sS'm'
p5369
I2
ssS'SUFFIX'
p5370
S'it2'
p5371
sS'GMAX_NAME'
p5372
g5365
sS'STATES'
p5373
(lp5374
g5369
ag5368
asS'I_VALS'
p5375
(dp5376
F6.3
g16
(g20
S'\x1d\xa2\xe8e\x9e7\x18?'
p5377
tp5378
Rp5379
sI37
g16
(g20
S'J\xb9\xd8?\xceg\x14?'
p5380
tp5381
Rp5382
ssS'ERROR_FLAGS'
p5383
(lp5384
ssS'136803_cat.mod'
p5385
(dp5386
S'G_VALS'
p5387
(dp5388
S'gbar_cat'
p5389
F1.0
ssS'GATES'
p5390
(dp5391
S'h'
p5392
I1
sS'm'
p5393
I2
ssS'SUFFIX'
p5394
S'cat'
p5395
sS'GMAX_NAME'
p5396
g5389
sS'STATES'
p5397
(lp5398
g5393
ag5392
asS'I_VALS'
p5399
(dp5400
F6.3
g16
(g20
S'\xbbe\xb9 \xe1\xfd\xef?'
p5401
tp5402
Rp5403
sI37
g16
(g20
S'\xbbe\xb9 \xe1\xfd\xef?'
p5404
tp5405
Rp5406
ssS'ERROR_FLAGS'
p5407
(lp5408
ssS'184346_Ca_LVA.mod'
p5409
(dp5410
S'G_VALS'
p5411
(dp5412
S'gbar_Ca_LVA'
p5413
F1e-05
ssS'GATES'
p5414
(dp5415
S'h'
p5416
I1
sS'm'
p5417
I2
ssS'SUFFIX'
p5418
S'Ca_LVA'
p5419
sS'GMAX_NAME'
p5420
g5413
sS'STATES'
p5421
(lp5422
g5417
ag5416
asS'I_VALS'
p5423
(dp5424
F6.3
g16
(g20
S'%\x90\xe3\x88\xb5\xf8\xe4>'
p5425
tp5426
Rp5427
sI37
g16
(g20
S'\xc6\xb6\xe0\x88\xb5\xf8\xe4>'
p5428
tp5429
Rp5430
ssS'ERROR_FLAGS'
p5431
(lp5432
ssS'155601_tca.mod'
p5433
(dp5434
S'G_VALS'
p5435
(dp5436
S'gcatbar_cat'
p5437
F0.003
ssS'GATES'
p5438
(dp5439
S'h'
p5440
I1
sS'm'
p5441
I2
ssS'SUFFIX'
p5442
S'cat'
p5443
sS'GMAX_NAME'
p5444
g5437
sS'STATES'
p5445
(lp5446
g5441
ag5440
asS'I_VALS'
p5447
(dp5448
F6.3
g16
(g20
S'\xd4\x86\xdd+\xdf\xa7P?'
p5449
tp5450
Rp5451
sI37
g16
(g20
S'\x85\xf5\x8d\x9f\xac%O?'
p5452
tp5453
Rp5454
ssS'ERROR_FLAGS'
p5455
(lp5456
ssS'139656_GRC_CA.mod'
p5457
(dp5458
S'G_VALS'
p5459
(dp5460
S'gcabar_GRC_CA'
p5461
F0.00046
ssS'GATES'
p5462
(dp5463
S's'
p5464
I2
sS'u'
p5465
I1
ssS'SUFFIX'
p5466
S'GRC_CA'
p5467
sS'GMAX_NAME'
p5468
g5461
sS'STATES'
p5469
(lp5470
g5464
ag5465
asS'I_VALS'
p5471
(dp5472
F6.3
g16
(g20
S'sW\xd8\xee\x84%>?'
p5473
tp5474
Rp5475
sI37
g16
(g20
S'W\xb1R\xb1\x84%>?'
p5476
tp5477
Rp5478
ssS'ERROR_FLAGS'
p5479
(lp5480
ssS'180370_L_Ca.mod'
p5481
(dp5482
S'G_VALS'
p5483
(dp5484
S'gcabar_L_Ca'
p5485
F0.0003
ssS'GATES'
p5486
(dp5487
S'm'
p5488
I1
ssS'SUFFIX'
p5489
S'L_Ca'
p5490
sS'GMAX_NAME'
p5491
g5485
sS'STATES'
p5492
(lp5493
g5488
asS'I_VALS'
p5494
(dp5495
F6.3
g16
(g20
S'\xeb\xcd\xc3\x1d*\xa93?'
p5496
tp5497
Rp5498
sI37
g16
(g20
S'\xeb\xcd\xc3\x1d*\xa93?'
p5499
tp5500
Rp5501
ssS'ERROR_FLAGS'
p5502
(lp5503
ssS'18501_spike.mod'
p5504
(dp5505
S'ERROR_FLAGS'
p5506
(lp5507
I8
assS'151282_icaolmw.mod'
p5508
(dp5509
S'ERROR_FLAGS'
p5510
(lp5511
I1
assS'143719_calH.mod'
p5512
(dp5513
S'G_VALS'
p5514
(dp5515
S'gcalbar_calH'
p5516
F1.0
ssS'GATES'
p5517
(dp5518
S'h'
p5519
I1
sS'm'
p5520
I3
ssS'SUFFIX'
p5521
S'calH'
p5522
sS'GMAX_NAME'
p5523
g5516
sS'STATES'
p5524
(lp5525
g5520
ag5519
asS'I_VALS'
p5526
(dp5527
F6.3
g16
(g20
S'\xb9>:<\xde\xfd\xef?'
p5528
tp5529
Rp5530
sI37
g16
(g20
S'\xb9>:<\xde\xfd\xef?'
p5531
tp5532
Rp5533
ssS'ERROR_FLAGS'
p5534
(lp5535
ssS'185355_CaL.mod'
p5536
(dp5537
S'G_VALS'
p5538
(dp5539
S'glcabar_lca'
p5540
F1.0
ssS'GATES'
p5541
(dp5542
S'e'
p5543
I2
ssS'SUFFIX'
p5544
S'lca'
p5545
sS'GMAX_NAME'
p5546
g5540
sS'STATES'
p5547
(lp5548
g5543
asS'I_VALS'
p5549
(dp5550
F6.3
g16
(g20
S'$9\xad\xff\xff\xff\xef?'
p5551
tp5552
Rp5553
sI37
g16
(g20
S'&9\xad\xff\xff\xff\xef?'
p5554
tp5555
Rp5556
ssS'ERROR_FLAGS'
p5557
(lp5558
ssS'39949_caL.mod'
p5559
(dp5560
S'ERROR_FLAGS'
p5561
(lp5562
I5
assS'183949_L_Ca.mod'
p5563
(dp5564
S'G_VALS'
p5565
(dp5566
S'gcabar_L_Ca'
p5567
F0.0003
ssS'GATES'
p5568
(dp5569
S'm'
p5570
I1
ssS'SUFFIX'
p5571
S'L_Ca'
p5572
sS'GMAX_NAME'
p5573
g5567
sS'STATES'
p5574
(lp5575
g5570
asS'I_VALS'
p5576
(dp5577
F6.3
g16
(g20
S'\xeb\xcd\xc3\x1d*\xa93?'
p5578
tp5579
Rp5580
sI37
g16
(g20
S'\xeb\xcd\xc3\x1d*\xa93?'
p5581
tp5582
Rp5583
ssS'ERROR_FLAGS'
p5584
(lp5585
ssS'105385_cap_gp.mod'
p5586
(dp5587
S'G_VALS'
p5588
(dp5589
S'gbar_cap_gp'
p5590
F1.0
ssS'GATES'
p5591
(dp5592
S'm'
p5593
I1
ssS'SUFFIX'
p5594
S'cap_gp'
p5595
sS'GMAX_NAME'
p5596
g5590
sS'STATES'
p5597
(lp5598
g5593
asS'I_VALS'
p5599
(dp5600
F6.3
g16
(g20
S'3\xa33\x89.\x89\xe9\xbe'
p5601
tp5602
Rp5603
sI37
g16
(g20
S'\xef\xa0\xf5H\x94\x1e[?'
p5604
tp5605
Rp5606
ssS'ERROR_FLAGS'
p5607
(lp5608
ssS'143100_CaH.mod'
p5609
(dp5610
S'G_VALS'
p5611
(dp5612
S'gmax_CaH'
p5613
F0.001
ssS'GATES'
p5614
(dp5615
S'm'
p5616
I1
ssS'SUFFIX'
p5617
S'CaH'
p5618
sS'GMAX_NAME'
p5619
g5613
sS'STATES'
p5620
(lp5621
g5616
asS'I_VALS'
p5622
(dp5623
F6.3
g16
(g20
S'\xd6\xe0\xc7\xf8HbP?'
p5624
tp5625
Rp5626
sI37
g16
(g20
S'\xd6\xe0\xc7\xf8HbP?'
p5627
tp5628
Rp5629
ssS'ERROR_FLAGS'
p5630
(lp5631
ssS'184303_Ca_LVA.mod'
p5632
(dp5633
S'G_VALS'
p5634
(dp5635
S'gbar_Ca_LVA'
p5636
F1e-05
ssS'GATES'
p5637
(dp5638
S'h'
p5639
I1
sS'm'
p5640
I2
ssS'SUFFIX'
p5641
S'Ca_LVA'
p5642
sS'GMAX_NAME'
p5643
g5636
sS'STATES'
p5644
(lp5645
g5640
ag5639
asS'I_VALS'
p5646
(dp5647
F6.3
g16
(g20
S'%\x90\xe3\x88\xb5\xf8\xe4>'
p5648
tp5649
Rp5650
sI37
g16
(g20
S'\xc6\xb6\xe0\x88\xb5\xf8\xe4>'
p5651
tp5652
Rp5653
ssS'ERROR_FLAGS'
p5654
(lp5655
ssS'184182_Ca_HVA.mod'
p5656
(dp5657
S'G_VALS'
p5658
(dp5659
S'gbar_Ca_HVA'
p5660
F1e-05
ssS'GATES'
p5661
(dp5662
S'h'
p5663
I1
sS'm'
p5664
I2
ssS'SUFFIX'
p5665
S'Ca_HVA'
p5666
sS'GMAX_NAME'
p5667
g5660
sS'STATES'
p5668
(lp5669
g5664
ag5663
asS'I_VALS'
p5670
(dp5671
F6.3
g16
(g20
S'\x1dT\xe3\x88\xb5\xf8\xe4>'
p5672
tp5673
Rp5674
sI37
g16
(g20
S'\x1dT\xe3\x88\xb5\xf8\xe4>'
p5675
tp5676
Rp5677
ssS'ERROR_FLAGS'
p5678
(lp5679
ssS'121060_chan_CaL12.mod'
p5680
(dp5681
S'ERROR_FLAGS'
p5682
(lp5683
I5
assS'139656_Golgi_Ca_HVA.mod'
p5684
(dp5685
S'G_VALS'
p5686
(dp5687
S'gcabar_Golgi_Ca_HVA'
p5688
F0.00046
ssS'GATES'
p5689
(dp5690
S's'
p5691
I2
sS'u'
p5692
I1
ssS'SUFFIX'
p5693
S'Golgi_Ca_HVA'
p5694
sS'GMAX_NAME'
p5695
g5688
sS'STATES'
p5696
(lp5697
g5691
ag5692
asS'I_VALS'
p5698
(dp5699
F6.3
g16
(g20
S'sW\xd8\xee\x84%>?'
p5700
tp5701
Rp5702
sI37
g16
(g20
S'W\xb1R\xb1\x84%>?'
p5703
tp5704
Rp5705
ssS'ERROR_FLAGS'
p5706
(lp5707
ssS'150288_cadyn.mod'
p5708
(dp5709
S'G_VALS'
p5710
(dp5711
S'gcabar_cadyn'
p5712
F0.0001
ssS'GATES'
p5713
(dp5714
S'z'
p5715
I1
sS'u'
p5716
I2
ssS'SUFFIX'
p5717
S'cadyn'
p5718
sS'GMAX_NAME'
p5719
g5712
sS'STATES'
p5720
(lp5721
g5716
ag5715
asS'I_VALS'
p5722
(dp5723
F6.3
g16
(g20
S'\xfa\x03\xef\xa6\xe26\x1a?'
p5724
tp5725
Rp5726
sI37
g16
(g20
S'\xfa\x03\xef\xa6\xe26\x1a?'
p5727
tp5728
Rp5729
ssS'ERROR_FLAGS'
p5730
(lp5731
ssS'155057_cat.mod'
p5732
(dp5733
S'G_VALS'
p5734
(dp5735
S'gcatbar_cat'
p5736
F1.0
ssS'GATES'
p5737
(dp5738
S'h'
p5739
I1
sS'm'
p5740
I2
ssS'SUFFIX'
p5741
S'cat'
p5742
sS'GMAX_NAME'
p5743
g5736
sS'STATES'
p5744
(lp5745
g5740
ag5739
asS'I_VALS'
p5746
(dp5747
F6.3
g16
(g20
S'\xa1\x10\n\xbfC\x0e\xf0?'
p5748
tp5749
Rp5750
sI37
g16
(g20
S'\x89X\xcd \x81\x17\xf0?'
p5751
tp5752
Rp5753
ssS'ERROR_FLAGS'
p5754
(lp5755
ssS'101629_cal2.mod'
p5756
(dp5757
S'G_VALS'
p5758
(dp5759
S'gcalbar_cal'
p5760
F0.003
ssS'GATES'
p5761
(dp5762
S'm'
p5763
I2
ssS'SUFFIX'
p5764
S'cal'
p5765
sS'GMAX_NAME'
p5766
g5760
sS'STATES'
p5767
(lp5768
g5763
asS'I_VALS'
p5769
(dp5770
F6.3
g16
(g20
S"\xa5'\xfd\xa1\x8f\xbcO?"
p5771
tp5772
Rp5773
sI37
g16
(g20
S"q'\xb8\x0f\xbd\xacM?"
p5774
tp5775
Rp5776
ssS'ERROR_FLAGS'
p5777
(lp5778
ssS'126814_cal2.mod'
p5779
(dp5780
S'G_VALS'
p5781
(dp5782
S'gcalbar_cal'
p5783
F0.003
ssS'GATES'
p5784
(dp5785
S'm'
p5786
I2
ssS'SUFFIX'
p5787
S'cal'
p5788
sS'GMAX_NAME'
p5789
g5783
sS'STATES'
p5790
(lp5791
g5786
asS'I_VALS'
p5792
(dp5793
F6.3
g16
(g20
S"\xa5'\xfd\xa1\x8f\xbcO?"
p5794
tp5795
Rp5796
sI37
g16
(g20
S"q'\xb8\x0f\xbd\xacM?"
p5797
tp5798
Rp5799
ssS'ERROR_FLAGS'
p5800
(lp5801
ssS'149000_CaP.mod'
p5802
(dp5803
S'G_VALS'
p5804
(dp5805
S'gcabar_CaP'
p5806
F0.0045
ssS'GATES'
p5807
(dp5808
S'h'
p5809
I1
sS'm'
p5810
I1
ssS'SUFFIX'
p5811
S'CaP'
p5812
sS'GMAX_NAME'
p5813
g5806
sS'STATES'
p5814
(lp5815
g5810
ag5809
asS'I_VALS'
p5816
(dp5817
F6.3
g16
(g20
S'\xb8\x83I\x8c\x8fnr?'
p5818
tp5819
Rp5820
sI37
g16
(g20
S'\n&1\xfbwnr?'
p5821
tp5822
Rp5823
ssS'ERROR_FLAGS'
p5824
(lp5825
ssS'102288_ICaT.mod'
p5826
(dp5827
S'G_VALS'
p5828
(dp5829
S'gbar_cat'
p5830
F0.003
ssS'GATES'
p5831
(dp5832
S'h'
p5833
I1
sS'm'
p5834
I2
ssS'SUFFIX'
p5835
S'cat'
p5836
sS'GMAX_NAME'
p5837
g5830
sS'STATES'
p5838
(lp5839
g5834
ag5833
asS'I_VALS'
p5840
(dp5841
F6.3
g16
(g20
S'/\xb8\xf0+\xdf\xa7P?'
p5842
tp5843
Rp5844
sI37
g16
(g20
S'R6\xb2\x9f\xac%O?'
p5845
tp5846
Rp5847
ssS'ERROR_FLAGS'
p5848
(lp5849
ssS'144490_somacar.mod'
p5850
(dp5851
S'G_VALS'
p5852
(dp5853
S'gmax_somacar'
p5854
F0.0
sS'gcabar_somacar'
p5855
F1.0
ssS'GATES'
p5856
(dp5857
S'h'
p5858
I1
sS'm'
p5859
I3
ssS'SUFFIX'
p5860
S'somacar'
p5861
sS'GMAX_NAME'
p5862
g5855
sS'STATES'
p5863
(lp5864
g5859
ag5858
asS'I_VALS'
p5865
(dp5866
F6.3
g16
(g20
S'\tMW\xa3\x83\x01\xf0?'
p5867
tp5868
Rp5869
sI37
g16
(g20
S'\tMW\xa3\x83\x01\xf0?'
p5870
tp5871
Rp5872
ssS'ERROR_FLAGS'
p5873
(lp5874
ssS'144490_cal.mod'
p5875
(dp5876
S'G_VALS'
p5877
(dp5878
S'gmax_cal'
p5879
F0.0
sS'gcalbar_cal'
p5880
F1.0
ssS'GATES'
p5881
(dp5882
S'm'
p5883
I1
ssS'SUFFIX'
p5884
S'cal'
p5885
sS'GMAX_NAME'
p5886
g5880
sS'STATES'
p5887
(lp5888
g5883
asS'I_VALS'
p5889
(dp5890
F6.3
g16
(g20
S'\x17\xb86v\x8aB\xd1?'
p5891
tp5892
Rp5893
sI37
g16
(g20
S'\xfc\xa4\xf1\\0\x13\xd0?'
p5894
tp5895
Rp5896
ssS'ERROR_FLAGS'
p5897
(lp5898
ssS'125152_CAnpq.mod'
p5899
(dp5900
S'ERROR_FLAGS'
p5901
(lp5902
I5
assS'126637_CaEcvode.mod'
p5903
(dp5904
S'G_VALS'
p5905
(dp5906
S'gcabar_CaEcvode'
p5907
F0.0005
ssS'GATES'
p5908
(dp5909
S'h'
p5910
I1
sS'm'
p5911
I1
ssS'SUFFIX'
p5912
S'CaEcvode'
p5913
sS'GMAX_NAME'
p5914
g5907
sS'STATES'
p5915
(lp5916
g5911
ag5910
asS'I_VALS'
p5917
(dp5918
F6.3
g16
(g20
S'\xa0\xe4u,wa@?'
p5919
tp5920
Rp5921
sI37
g16
(g20
S'\x8900\x9dya@?'
p5922
tp5923
Rp5924
ssS'ERROR_FLAGS'
p5925
(lp5926
ssS'20212_ca.mod'
p5927
(dp5928
S'G_VALS'
p5929
(dp5930
S'gbar_ca'
p5931
F0.1
ssS'GATES'
p5932
(dp5933
S'h'
p5934
I1
sS'm'
p5935
I2
ssS'SUFFIX'
p5936
S'ca'
p5937
sS'GMAX_NAME'
p5938
g5931
sS'STATES'
p5939
(lp5940
g5935
ag5934
asS'I_VALS'
p5941
(dp5942
F6.3
g16
(g20
S'{3\xb4z\xba\xdf\xc4>'
p5943
tp5944
Rp5945
sI37
g16
(g20
S'G\xc6\xbf\x0e\x89\xd3\x00?'
p5946
tp5947
Rp5948
ssS'ERROR_FLAGS'
p5949
(lp5950
ssS'144490_car_v2.mod'
p5951
(dp5952
S'G_VALS'
p5953
(dp5954
S'gcabar_car'
p5955
F1.0
ssS'GATES'
p5956
(dp5957
S'h'
p5958
I1
sS'm'
p5959
I3
ssS'SUFFIX'
p5960
S'car'
p5961
sS'GMAX_NAME'
p5962
g5955
sS'STATES'
p5963
(lp5964
g5959
ag5958
asS'I_VALS'
p5965
(dp5966
F6.3
g16
(g20
S'\x9d:\xc0?\x91\xfd\xef?'
p5967
tp5968
Rp5969
sI37
g16
(g20
S'\x9d:\xc0?\x91\xfd\xef?'
p5970
tp5971
Rp5972
ssS'ERROR_FLAGS'
p5973
(lp5974
ssS'144523_CaHVA.mod'
p5975
(dp5976
S'ERROR_FLAGS'
p5977
(lp5978
I5
assS'119266_cal.mod'
p5979
(dp5980
S'ERROR_FLAGS'
p5981
(lp5982
I8
assS'20212_can2.mod'
p5983
(dp5984
S'G_VALS'
p5985
(dp5986
S'gcanbar_can'
p5987
F1.0
ssS'GATES'
p5988
(dp5989
S'h'
p5990
I2
sS'm'
p5991
I2
ssS'SUFFIX'
p5992
S'can'
p5993
sS'GMAX_NAME'
p5994
g5987
sS'STATES'
p5995
(lp5996
g5991
ag5990
asS'I_VALS'
p5997
(dp5998
F6.3
g16
(g20
S'\x97\xbdE-\xe3\x8d\xd5?'
p5999
tp6000
Rp6001
sI37
g16
(g20
S'TZ\xa4T\xcf&\xd4?'
p6002
tp6003
Rp6004
ssS'ERROR_FLAGS'
p6005
(lp6006
ssS'184168_Ca_HVA.mod'
p6007
(dp6008
S'G_VALS'
p6009
(dp6010
S'gbar_Ca_HVA'
p6011
F1e-05
ssS'GATES'
p6012
(dp6013
S'h'
p6014
I1
sS'm'
p6015
I2
ssS'SUFFIX'
p6016
S'Ca_HVA'
p6017
sS'GMAX_NAME'
p6018
g6011
sS'STATES'
p6019
(lp6020
g6015
ag6014
asS'I_VALS'
p6021
(dp6022
F6.3
g16
(g20
S'\x1dT\xe3\x88\xb5\xf8\xe4>'
p6023
tp6024
Rp6025
sI37
g16
(g20
S'\x1dT\xe3\x88\xb5\xf8\xe4>'
p6026
tp6027
Rp6028
ssS'ERROR_FLAGS'
p6029
(lp6030
ssS'2488_ca.mod'
p6031
(dp6032
S'G_VALS'
p6033
(dp6034
S'gbar_ca'
p6035
F0.1
ssS'GATES'
p6036
(dp6037
S'h'
p6038
I1
sS'm'
p6039
I2
ssS'SUFFIX'
p6040
S'ca'
p6041
sS'GMAX_NAME'
p6042
g6035
sS'STATES'
p6043
(lp6044
g6039
ag6038
asS'I_VALS'
p6045
(dp6046
F6.3
g16
(g20
S'y3\xb4z\xba\xdf\xc4>'
p6047
tp6048
Rp6049
sI37
g16
(g20
S'N\xc6\xbf\x0e\x89\xd3\x00?'
p6050
tp6051
Rp6052
ssS'ERROR_FLAGS'
p6053
(lp6054
ssS'144502_stoca.mod'
p6055
(dp6056
S'G_VALS'
p6057
(dp6058
S'gbar_stoca'
p6059
F0.4
ssS'GATES'
p6060
(dp6061
S'h'
p6062
I1
sS'm'
p6063
I1
ssS'SUFFIX'
p6064
S'stoca'
p6065
sS'GMAX_NAME'
p6066
g6059
sS'STATES'
p6067
(lp6068
g6063
ag6062
asS'I_VALS'
p6069
(dp6070
F6.3
g16
(g20
S'M\x8c\xa9\x15\xe36:?'
p6071
tp6072
Rp6073
sI37
g16
(g20
S'M\x8c\xa9\x15\xe36:?'
p6074
tp6075
Rp6076
ssS'ERROR_FLAGS'
p6077
(lp6078
ssS'87473_cahi.mod'
p6079
(dp6080
S'ERROR_FLAGS'
p6081
(lp6082
I8
assS'20212_My_cat.mod'
p6083
(dp6084
S'G_VALS'
p6085
(dp6086
S'gcatbar_mycat'
p6087
F1.0
ssS'GATES'
p6088
(dp6089
S'h'
p6090
I2
sS'm'
p6091
I2
ssS'SUFFIX'
p6092
S'mycat'
p6093
sS'GMAX_NAME'
p6094
g6087
sS'STATES'
p6095
(lp6096
g6091
ag6090
asS'I_VALS'
p6097
(dp6098
F6.3
g16
(g20
S'XY+\xc5\xf8\xb0\xf7?'
p6099
tp6100
Rp6101
sI37
g16
(g20
S'h\x0bU\x1f*\x1d\xf6?'
p6102
tp6103
Rp6104
ssS'ERROR_FLAGS'
p6105
(lp6106
ssS'136803_ca.mod'
p6107
(dp6108
S'G_VALS'
p6109
(dp6110
S'gbar_ca'
p6111
F0.1
ssS'GATES'
p6112
(dp6113
S'h'
p6114
I1
sS'm'
p6115
I2
ssS'SUFFIX'
p6116
S'ca'
p6117
sS'GMAX_NAME'
p6118
g6111
sS'STATES'
p6119
(lp6120
g6115
ag6114
asS'I_VALS'
p6121
(dp6122
F6.3
g16
(g20
S'y3\xb4z\xba\xdf\xc4>'
p6123
tp6124
Rp6125
sI37
g16
(g20
S'N\xc6\xbf\x0e\x89\xd3\x00?'
p6126
tp6127
Rp6128
ssS'ERROR_FLAGS'
p6129
(lp6130
ssS'123815_car.mod'
p6131
(dp6132
S'G_VALS'
p6133
(dp6134
S'gcabar_car'
p6135
F1.0
ssS'GATES'
p6136
(dp6137
S'h'
p6138
I1
sS'm'
p6139
I3
ssS'SUFFIX'
p6140
S'car'
p6141
sS'GMAX_NAME'
p6142
g6135
sS'STATES'
p6143
(lp6144
g6139
ag6138
asS'I_VALS'
p6145
(dp6146
F6.3
g16
(g20
S'\x9d:\xc0?\x91\xfd\xef?'
p6147
tp6148
Rp6149
sI37
g16
(g20
S'\x9d:\xc0?\x91\xfd\xef?'
p6150
tp6151
Rp6152
ssS'ERROR_FLAGS'
p6153
(lp6154
ssS'143719_car.mod'
p6155
(dp6156
S'G_VALS'
p6157
(dp6158
S'gcabar_car'
p6159
F1.0
ssS'GATES'
p6160
(dp6161
S'h'
p6162
I1
sS'm'
p6163
I3
ssS'SUFFIX'
p6164
S'car'
p6165
sS'GMAX_NAME'
p6166
g6159
sS'STATES'
p6167
(lp6168
g6163
ag6162
asS'I_VALS'
p6169
(dp6170
F6.3
g16
(g20
S"'l\xa6/\x91\xfd\xef?"
p6171
tp6172
Rp6173
sI37
g16
(g20
S"'l\xa6/\x91\xfd\xef?"
p6174
tp6175
Rp6176
ssS'ERROR_FLAGS'
p6177
(lp6178
ssS'64229_LcaMig.mod'
p6179
(dp6180
S'G_VALS'
p6181
(dp6182
S'glcabar_lca'
p6183
F1.0
ssS'GATES'
p6184
(dp6185
S'm'
p6186
I2
ssS'SUFFIX'
p6187
S'lca'
p6188
sS'GMAX_NAME'
p6189
g6183
sS'STATES'
p6190
(lp6191
g6186
asS'I_VALS'
p6192
(dp6193
F6.3
g16
(g20
S'\xd3\xdc\xe9rm\xa9\xd4?'
p6194
tp6195
Rp6196
sI37
g16
(g20
S'vY\x1b\x07\xcbQ\xd3?'
p6197
tp6198
Rp6199
ssS'ERROR_FLAGS'
p6200
(lp6201
ssS'184310_Ca_LVA.mod'
p6202
(dp6203
S'G_VALS'
p6204
(dp6205
S'gbar_Ca_LVA'
p6206
F1e-05
ssS'GATES'
p6207
(dp6208
S'h'
p6209
I1
sS'm'
p6210
I2
ssS'SUFFIX'
p6211
S'Ca_LVA'
p6212
sS'GMAX_NAME'
p6213
g6206
sS'STATES'
p6214
(lp6215
g6210
ag6209
asS'I_VALS'
p6216
(dp6217
F6.3
g16
(g20
S'%\x90\xe3\x88\xb5\xf8\xe4>'
p6218
tp6219
Rp6220
sI37
g16
(g20
S'\xc6\xb6\xe0\x88\xb5\xf8\xe4>'
p6221
tp6222
Rp6223
ssS'ERROR_FLAGS'
p6224
(lp6225
ssS'140828_CaT.mod'
p6226
(dp6227
S'G_VALS'
p6228
(dp6229
S'gbar_it'
p6230
F0.0008
ssS'GATES'
p6231
(dp6232
S'h'
p6233
I1
sS'm'
p6234
I2
ssS'SUFFIX'
p6235
S'it'
p6236
sS'GMAX_NAME'
p6237
g6230
sS'STATES'
p6238
(lp6239
g6234
ag6233
asS'I_VALS'
p6240
(dp6241
F6.3
g16
(g20
S'\x03\xeb\xb4N\xe26J?'
p6242
tp6243
Rp6244
sI37
g16
(g20
S'\x03\xeb\xb4N\xe26J?'
p6245
tp6246
Rp6247
ssS'ERROR_FLAGS'
p6248
(lp6249
ssS'115356_CAnpq.mod'
p6250
(dp6251
S'ERROR_FLAGS'
p6252
(lp6253
I5
assS'184339_Ca_LVA.mod'
p6254
(dp6255
S'G_VALS'
p6256
(dp6257
S'gbar_Ca_LVA'
p6258
F1e-05
ssS'GATES'
p6259
(dp6260
S'h'
p6261
I1
sS'm'
p6262
I2
ssS'SUFFIX'
p6263
S'Ca_LVA'
p6264
sS'GMAX_NAME'
p6265
g6258
sS'STATES'
p6266
(lp6267
g6262
ag6261
asS'I_VALS'
p6268
(dp6269
F6.3
g16
(g20
S'%\x90\xe3\x88\xb5\xf8\xe4>'
p6270
tp6271
Rp6272
sI37
g16
(g20
S'\xc6\xb6\xe0\x88\xb5\xf8\xe4>'
p6273
tp6274
Rp6275
ssS'ERROR_FLAGS'
p6276
(lp6277
ssS'136095_ntt.mod'
p6278
(dp6279
S'G_VALS'
p6280
(dp6281
S'gcabar_it2'
p6282
F0.024
ssS'GATES'
p6283
(dp6284
S'h'
p6285
I1
sS'm'
p6286
I2
ssS'SUFFIX'
p6287
S'it2'
p6288
sS'GMAX_NAME'
p6289
g6282
sS'STATES'
p6290
(lp6291
g6286
ag6285
asS'I_VALS'
p6292
(dp6293
F6.3
g16
(g20
S'\x9a\x9e\xb0x\x80\x0c\xb4?'
p6294
tp6295
Rp6296
sI37
g16
(g20
S'm,Uo\x8f\xb8t?'
p6297
tp6298
Rp6299
ssS'ERROR_FLAGS'
p6300
(lp6301
ssS'119266_can.mod'
p6302
(dp6303
S'ERROR_FLAGS'
p6304
(lp6305
I4
assS'135902_icaolmw.mod'
p6306
(dp6307
S'ERROR_FLAGS'
p6308
(lp6309
I1
assS'3457_canrgc.mod'
p6310
(dp6311
S'G_VALS'
p6312
(dp6313
S'gbar_canrgc'
p6314
F0.01
ssS'GATES'
p6315
(dp6316
S'h'
p6317
I1
sS'm'
p6318
I2
ssS'SUFFIX'
p6319
S'canrgc'
p6320
sS'GMAX_NAME'
p6321
g6314
sS'STATES'
p6322
(lp6323
g6318
ag6317
asS'I_VALS'
p6324
(dp6325
F6.3
g16
(g20
S'\xa2P\x00D\xe1z\x84?'
p6326
tp6327
Rp6328
sI37
g16
(g20
S'\xa2P\x00D\xe1z\x84?'
p6329
tp6330
Rp6331
ssS'ERROR_FLAGS'
p6332
(lp6333
ssS'144007_LGMD_CaL.mod'
p6334
(dp6335
S'ERROR_FLAGS'
p6336
(lp6337
I3
assS'119266_cat.mod'
p6338
(dp6339
S'G_VALS'
p6340
(dp6341
S'gcatbar_cat'
p6342
F1.0
ssS'GATES'
p6343
(dp6344
S'h'
p6345
I1
sS'm'
p6346
I2
ssS'SUFFIX'
p6347
S'cat'
p6348
sS'GMAX_NAME'
p6349
g6342
sS'STATES'
p6350
(lp6351
g6346
ag6345
asS'I_VALS'
p6352
(dp6353
F6.3
g16
(g20
S'\xa1\x10\n\xbfC\x0e\xf0?'
p6354
tp6355
Rp6356
sI37
g16
(g20
S'\x89X\xcd \x81\x17\xf0?'
p6357
tp6358
Rp6359
ssS'ERROR_FLAGS'
p6360
(lp6361
ssS'184319_Ca_LVA.mod'
p6362
(dp6363
S'G_VALS'
p6364
(dp6365
S'gbar_Ca_LVA'
p6366
F1e-05
ssS'GATES'
p6367
(dp6368
S'h'
p6369
I1
sS'm'
p6370
I2
ssS'SUFFIX'
p6371
S'Ca_LVA'
p6372
sS'GMAX_NAME'
p6373
g6366
sS'STATES'
p6374
(lp6375
g6370
ag6369
asS'I_VALS'
p6376
(dp6377
F6.3
g16
(g20
S'%\x90\xe3\x88\xb5\xf8\xe4>'
p6378
tp6379
Rp6380
sI37
g16
(g20
S'\xc6\xb6\xe0\x88\xb5\xf8\xe4>'
p6381
tp6382
Rp6383
ssS'ERROR_FLAGS'
p6384
(lp6385
ssS'184337_Ca_LVA.mod'
p6386
(dp6387
S'G_VALS'
p6388
(dp6389
S'gbar_Ca_LVA'
p6390
F1e-05
ssS'GATES'
p6391
(dp6392
S'h'
p6393
I1
sS'm'
p6394
I2
ssS'SUFFIX'
p6395
S'Ca_LVA'
p6396
sS'GMAX_NAME'
p6397
g6390
sS'STATES'
p6398
(lp6399
g6394
ag6393
asS'I_VALS'
p6400
(dp6401
F6.3
g16
(g20
S'%\x90\xe3\x88\xb5\xf8\xe4>'
p6402
tp6403
Rp6404
sI37
g16
(g20
S'\xc6\xb6\xe0\x88\xb5\xf8\xe4>'
p6405
tp6406
Rp6407
ssS'ERROR_FLAGS'
p6408
(lp6409
ssS'93321_cas.mod'
p6410
(dp6411
S'G_VALS'
p6412
(dp6413
S'gbar_cas'
p6414
F1.0
ssS'GATES'
p6415
(dp6416
S'h'
p6417
I1
sS'm'
p6418
I3
ssS'SUFFIX'
p6419
S'cas'
p6420
sS'GMAX_NAME'
p6421
g6414
sS'STATES'
p6422
(lp6423
g6418
ag6417
asS'I_VALS'
p6424
(dp6425
F6.3
g16
(g20
S'2+1\xca\xfe\xff\xef?'
p6426
tp6427
Rp6428
sI37
g16
(g20
S'\xc2\xcdI\x7f\xfe\xff\xef?'
p6429
tp6430
Rp6431
ssS'ERROR_FLAGS'
p6432
(lp6433
ssS'125857_cacurrent.mod'
p6434
(dp6435
S'ERROR_FLAGS'
p6436
(lp6437
I5
assS'150284_cat.mod'
p6438
(dp6439
S'ERROR_FLAGS'
p6440
(lp6441
I5
assS'181967_cal2.mod'
p6442
(dp6443
S'G_VALS'
p6444
(dp6445
S'gcalbar_cal2'
p6446
F0.003
ssS'GATES'
p6447
(dp6448
S'm'
p6449
I2
ssS'SUFFIX'
p6450
S'cal2'
p6451
sS'GMAX_NAME'
p6452
g6446
sS'STATES'
p6453
(lp6454
g6449
asS'I_VALS'
p6455
(dp6456
F6.3
g16
(g20
S"\xa5'\xfd\xa1\x8f\xbcO?"
p6457
tp6458
Rp6459
sI37
g16
(g20
S"q'\xb8\x0f\xbd\xacM?"
p6460
tp6461
Rp6462
ssS'ERROR_FLAGS'
p6463
(lp6464
ssS'140828_ca.mod'
p6465
(dp6466
S'G_VALS'
p6467
(dp6468
S'gbar_ca'
p6469
F0.1
ssS'GATES'
p6470
(dp6471
S'h'
p6472
I1
sS'm'
p6473
I2
ssS'SUFFIX'
p6474
S'ca'
p6475
sS'GMAX_NAME'
p6476
g6469
sS'STATES'
p6477
(lp6478
g6473
ag6472
asS'I_VALS'
p6479
(dp6480
F6.3
g16
(g20
S'y3\xb4z\xba\xdf\xc4>'
p6481
tp6482
Rp6483
sI37
g16
(g20
S'N\xc6\xbf\x0e\x89\xd3\x00?'
p6484
tp6485
Rp6486
ssS'ERROR_FLAGS'
p6487
(lp6488
ssS'112359_cachan.mod'
p6489
(dp6490
S'ERROR_FLAGS'
p6491
(lp6492
I7
assS'114359_ca.mod'
p6493
(dp6494
S'G_VALS'
p6495
(dp6496
S'gbar_ca'
p6497
F0.1
ssS'GATES'
p6498
(dp6499
S'h'
p6500
I1
sS'm'
p6501
I2
ssS'SUFFIX'
p6502
S'ca'
p6503
sS'GMAX_NAME'
p6504
g6497
sS'STATES'
p6505
(lp6506
g6501
ag6500
asS'I_VALS'
p6507
(dp6508
F6.3
g16
(g20
S'x3\xb4z\xba\xdf\xc4>'
p6509
tp6510
Rp6511
sI37
g16
(g20
S'N\xc6\xbf\x0e\x89\xd3\x00?'
p6512
tp6513
Rp6514
ssS'ERROR_FLAGS'
p6515
(lp6516
ssS'17664_CaP.mod'
p6517
(dp6518
S'G_VALS'
p6519
(dp6520
S'gcabar_CaP'
p6521
F0.0045
ssS'GATES'
p6522
(dp6523
S'h'
p6524
I1
sS'm'
p6525
I1
ssS'SUFFIX'
p6526
S'CaP'
p6527
sS'GMAX_NAME'
p6528
g6521
sS'STATES'
p6529
(lp6530
g6525
ag6524
asS'I_VALS'
p6531
(dp6532
F6.3
g16
(g20
S'\xb8\x83I\x8c\x8fnr?'
p6533
tp6534
Rp6535
sI37
g16
(g20
S'\n&1\xfbwnr?'
p6536
tp6537
Rp6538
ssS'ERROR_FLAGS'
p6539
(lp6540
ssS'20212_My_can.mod'
p6541
(dp6542
S'G_VALS'
p6543
(dp6544
S'gcanbar_mycan'
p6545
F1.0
ssS'GATES'
p6546
(dp6547
S'h'
p6548
I1
sS'm'
p6549
I2
ssS'SUFFIX'
p6550
S'mycan'
p6551
sS'GMAX_NAME'
p6552
g6545
sS'STATES'
p6553
(lp6554
g6549
ag6548
asS'I_VALS'
p6555
(dp6556
F6.3
g16
(g20
S',\xb0\x8d9\x10\xdd$@'
p6557
tp6558
Rp6559
sI37
g16
(g20
S':\xdc\x8bZL\xa4!@'
p6560
tp6561
Rp6562
ssS'ERROR_FLAGS'
p6563
(lp6564
ssS'93321_cat.mod'
p6565
(dp6566
S'G_VALS'
p6567
(dp6568
S'gbar_cat'
p6569
F1.0
ssS'GATES'
p6570
(dp6571
S'h'
p6572
I1
sS'm'
p6573
I3
ssS'SUFFIX'
p6574
S'cat'
p6575
sS'GMAX_NAME'
p6576
g6569
sS'STATES'
p6577
(lp6578
g6573
ag6572
asS'I_VALS'
p6579
(dp6580
F6.3
g16
(g20
S'\xd3\x08\xef\xa4\x01\x00\xf0?'
p6581
tp6582
Rp6583
sI37
g16
(g20
S'\xb9.P\xb2\x01\x00\xf0?'
p6584
tp6585
Rp6586
ssS'ERROR_FLAGS'
p6587
(lp6588
ssS'20212_car.mod'
p6589
(dp6590
S'G_VALS'
p6591
(dp6592
S'gcabar_car'
p6593
F1.0
ssS'GATES'
p6594
(dp6595
S'h'
p6596
I1
sS'm'
p6597
I3
ssS'SUFFIX'
p6598
S'car'
p6599
sS'GMAX_NAME'
p6600
g6593
sS'STATES'
p6601
(lp6602
g6597
ag6596
asS'I_VALS'
p6603
(dp6604
F6.3
g16
(g20
S'\x9d:\xc0?\x91\xfd\xef?'
p6605
tp6606
Rp6607
sI37
g16
(g20
S'\x9d:\xc0?\x91\xfd\xef?'
p6608
tp6609
Rp6610
ssS'ERROR_FLAGS'
p6611
(lp6612
ssS'84589_can.mod'
p6613
(dp6614
S'ERROR_FLAGS'
p6615
(lp6616
I1
assS'155157_IL_gutnick.mod'
p6617
(dp6618
S'G_VALS'
p6619
(dp6620
S'gcabar_ical'
p6621
F0.0001
ssS'GATES'
p6622
(dp6623
S'h'
p6624
I1
sS'm'
p6625
I2
ssS'SUFFIX'
p6626
S'ical'
p6627
sS'GMAX_NAME'
p6628
g6621
sS'STATES'
p6629
(lp6630
g6625
ag6624
asS'I_VALS'
p6631
(dp6632
F6.3
g16
(g20
S'D\xdf\x10\x8345\x1a?'
p6633
tp6634
Rp6635
sI37
g16
(g20
S'\xb9\x16:\x9c45\x1a?'
p6636
tp6637
Rp6638
ssS'ERROR_FLAGS'
p6639
(lp6640
ssS'144450_car.mod'
p6641
(dp6642
S'G_VALS'
p6643
(dp6644
S'gcabar_car'
p6645
F1.0
ssS'GATES'
p6646
(dp6647
S'h'
p6648
I1
sS'm'
p6649
I3
ssS'SUFFIX'
p6650
S'car'
p6651
sS'GMAX_NAME'
p6652
g6645
sS'STATES'
p6653
(lp6654
g6649
ag6648
asS'I_VALS'
p6655
(dp6656
F6.3
g16
(g20
S'\xa5\xc3c\x01\x91\xfd\xef?'
p6657
tp6658
Rp6659
sI37
g16
(g20
S'\xc75\x1a \x91\xfd\xef?'
p6660
tp6661
Rp6662
ssS'ERROR_FLAGS'
p6663
(lp6664
ssS'184319_Ca_HVA.mod'
p6665
(dp6666
S'G_VALS'
p6667
(dp6668
S'gbar_Ca_HVA'
p6669
F1e-05
ssS'GATES'
p6670
(dp6671
S'h'
p6672
I1
sS'm'
p6673
I2
ssS'SUFFIX'
p6674
S'Ca_HVA'
p6675
sS'GMAX_NAME'
p6676
g6669
sS'STATES'
p6677
(lp6678
g6673
ag6672
asS'I_VALS'
p6679
(dp6680
F6.3
g16
(g20
S'\x1dT\xe3\x88\xb5\xf8\xe4>'
p6681
tp6682
Rp6683
sI37
g16
(g20
S'\x1dT\xe3\x88\xb5\xf8\xe4>'
p6684
tp6685
Rp6686
ssS'ERROR_FLAGS'
p6687
(lp6688
ssS'87284_cat.mod'
p6689
(dp6690
S'G_VALS'
p6691
(dp6692
S'gcatbar_cat'
p6693
F0.003
ssS'GATES'
p6694
(dp6695
S'h'
p6696
I1
sS'm'
p6697
I2
ssS'SUFFIX'
p6698
S'cat'
p6699
sS'GMAX_NAME'
p6700
g6693
sS'STATES'
p6701
(lp6702
g6697
ag6696
asS'I_VALS'
p6703
(dp6704
F6.3
g16
(g20
S'\xda\xf5\r\xd3\xe2\xa7P?'
p6705
tp6706
Rp6707
sI37
g16
(g20
S'u1\x13\x8f\xb2%O?'
p6708
tp6709
Rp6710
ssS'ERROR_FLAGS'
p6711
(lp6712
ssS'139653_Ca_LVAst.mod'
p6713
(dp6714
S'G_VALS'
p6715
(dp6716
S'gCa_LVAstbar_Ca_LVAst'
p6717
F1e-05
ssS'GATES'
p6718
(dp6719
S'h'
p6720
I1
sS'm'
p6721
I2
ssS'SUFFIX'
p6722
S'Ca_LVAst'
p6723
sS'GMAX_NAME'
p6724
g6717
sS'STATES'
p6725
(lp6726
g6721
ag6720
asS'I_VALS'
p6727
(dp6728
F6.3
g16
(g20
S'\x16[\xe1\x88\xb5\xf8\xe4>'
p6729
tp6730
Rp6731
sI37
g16
(g20
S'\x16[\xe1\x88\xb5\xf8\xe4>'
p6732
tp6733
Rp6734
ssS'ERROR_FLAGS'
p6735
(lp6736
ssS'20756_cat.mod'
p6737
(dp6738
S'G_VALS'
p6739
(dp6740
S'gbar_cat'
p6741
F1.0
ssS'GATES'
p6742
(dp6743
S'h'
p6744
I1
sS'm'
p6745
I2
ssS'SUFFIX'
p6746
S'cat'
p6747
sS'GMAX_NAME'
p6748
g6741
sS'STATES'
p6749
(lp6750
g6745
ag6744
asS'I_VALS'
p6751
(dp6752
F6.3
g16
(g20
S'\xbbe\xb9 \xe1\xfd\xef?'
p6753
tp6754
Rp6755
sI37
g16
(g20
S'\xbbe\xb9 \xe1\xfd\xef?'
p6756
tp6757
Rp6758
ssS'ERROR_FLAGS'
p6759
(lp6760
ssS'20007_CAtM95.mod'
p6761
(dp6762
S'G_VALS'
p6763
(dp6764
S'gbar_CAtM95'
p6765
F0.003
ssS'GATES'
p6766
(dp6767
S'h'
p6768
I1
sS'm'
p6769
I2
ssS'SUFFIX'
p6770
S'CAtM95'
p6771
sS'GMAX_NAME'
p6772
g6765
sS'STATES'
p6773
(lp6774
g6769
ag6768
asS'I_VALS'
p6775
(dp6776
F6.3
g16
(g20
S'\xd4\x86\xdd+\xdf\xa7P?'
p6777
tp6778
Rp6779
sI37
g16
(g20
S'\x85\xf5\x8d\x9f\xac%O?'
p6780
tp6781
Rp6782
ssS'ERROR_FLAGS'
p6783
(lp6784
ssS'3457_calrgc.mod'
p6785
(dp6786
S'G_VALS'
p6787
(dp6788
S'gbar_calrgc'
p6789
F0.01
ssS'GATES'
p6790
(dp6791
S'm'
p6792
I2
ssS'SUFFIX'
p6793
S'calrgc'
p6794
sS'GMAX_NAME'
p6795
g6789
sS'STATES'
p6796
(lp6797
g6792
asS'I_VALS'
p6798
(dp6799
F6.3
g16
(g20
S'{\xe4]\xf9\xe0z\x84?'
p6800
tp6801
Rp6802
sI37
g16
(g20
S'{\xe4]\xf9\xe0z\x84?'
p6803
tp6804
Rp6805
ssS'ERROR_FLAGS'
p6806
(lp6807
ssS'149739_CaT.mod'
p6808
(dp6809
S'ERROR_FLAGS'
p6810
(lp6811
I4
assS'149174_nca.mod'
p6812
(dp6813
S'G_VALS'
p6814
(dp6815
S'gncabar_nca'
p6816
F1.0
ssS'GATES'
p6817
(dp6818
S'c'
p6819
I2
sS'd'
p6820
I1
ssS'SUFFIX'
p6821
S'nca'
p6822
sS'GMAX_NAME'
p6823
g6816
sS'STATES'
p6824
(lp6825
g6819
ag6820
asS'I_VALS'
p6826
(dp6827
F6.3
g16
(g20
S']\xbd\x04\xcf\xd4\xff\xef?'
p6828
tp6829
Rp6830
sI37
g16
(g20
S'Q\xf9;\x8c\xa5\xff\xef?'
p6831
tp6832
Rp6833
ssS'ERROR_FLAGS'
p6834
(lp6835
ssS'123815_somacar.mod'
p6836
(dp6837
S'G_VALS'
p6838
(dp6839
S'gcabar_somacar'
p6840
F1.0
ssS'GATES'
p6841
(dp6842
S'h'
p6843
I1
sS'm'
p6844
I3
ssS'SUFFIX'
p6845
S'somacar'
p6846
sS'GMAX_NAME'
p6847
g6840
sS'STATES'
p6848
(lp6849
g6844
ag6843
asS'I_VALS'
p6850
(dp6851
F6.3
g16
(g20
S'OA=\xbc\x8f\xfd\xef?'
p6852
tp6853
Rp6854
sI37
g16
(g20
S'OA=\xbc\x8f\xfd\xef?'
p6855
tp6856
Rp6857
ssS'ERROR_FLAGS'
p6858
(lp6859
ssS'125378_ca12dZUy.mod'
p6860
(dp6861
S'ERROR_FLAGS'
p6862
(lp6863
I5
assS'124063_Rod_Ca.mod'
p6864
(dp6865
S'G_VALS'
p6866
(dp6867
S'gCabar_Ca'
p6868
F4.0
ssS'GATES'
p6869
(dp6870
S'hCa'
p6871
I1
sS'mCa'
p6872
I1
ssS'SUFFIX'
p6873
S'Ca'
p6874
sS'GMAX_NAME'
p6875
g6868
sS'STATES'
p6876
(lp6877
g6872
ag6871
asS'I_VALS'
p6878
(dp6879
F6.3
g16
(g20
S'7\r\x11\\Lbp?'
p6880
tp6881
Rp6882
sI37
g16
(g20
S'7\r\x11\\Lbp?'
p6883
tp6884
Rp6885
ssS'ERROR_FLAGS'
p6886
(lp6887
ssS'121060_chan_CaT.mod'
p6888
(dp6889
S'ERROR_FLAGS'
p6890
(lp6891
I5
assS'155602_tca.mod'
p6892
(dp6893
S'G_VALS'
p6894
(dp6895
S'gcatbar_cat'
p6896
F0.003
ssS'GATES'
p6897
(dp6898
S'h'
p6899
I1
sS'm'
p6900
I2
ssS'SUFFIX'
p6901
S'cat'
p6902
sS'GMAX_NAME'
p6903
g6896
sS'STATES'
p6904
(lp6905
g6900
ag6899
asS'I_VALS'
p6906
(dp6907
F6.3
g16
(g20
S'\xd4\x86\xdd+\xdf\xa7P?'
p6908
tp6909
Rp6910
sI37
g16
(g20
S'\x85\xf5\x8d\x9f\xac%O?'
p6911
tp6912
Rp6913
ssS'ERROR_FLAGS'
p6914
(lp6915
ssS'37819_IT.mod'
p6916
(dp6917
S'G_VALS'
p6918
(dp6919
S'gmax_ittc'
p6920
F0.0022
ssS'GATES'
p6921
(dp6922
S'h'
p6923
I1
sS'm'
p6924
I2
ssS'SUFFIX'
p6925
S'ittc'
p6926
sS'GMAX_NAME'
p6927
g6920
sS'STATES'
p6928
(lp6929
g6924
ag6923
asS'I_VALS'
p6930
(dp6931
F6.3
g16
(g20
S'\xecI\xaa\x15\xbe\x05b?'
p6932
tp6933
Rp6934
sI37
g16
(g20
S'\xc7<\x83\xc4\xbb\x05b?'
p6935
tp6936
Rp6937
ssS'ERROR_FLAGS'
p6938
(lp6939
ssS'151126_nca.mod'
p6940
(dp6941
S'G_VALS'
p6942
(dp6943
S'gncabar_nca'
p6944
F1.0
ssS'GATES'
p6945
(dp6946
S'c'
p6947
I2
sS'd'
p6948
I1
ssS'SUFFIX'
p6949
S'nca'
p6950
sS'GMAX_NAME'
p6951
g6944
sS'STATES'
p6952
(lp6953
g6947
ag6948
asS'I_VALS'
p6954
(dp6955
F6.3
g16
(g20
S']\xbd\x04\xcf\xd4\xff\xef?'
p6956
tp6957
Rp6958
sI37
g16
(g20
S'Q\xf9;\x8c\xa5\xff\xef?'
p6959
tp6960
Rp6961
ssS'ERROR_FLAGS'
p6962
(lp6963
ssS'149000_CaE.mod'
p6964
(dp6965
S'G_VALS'
p6966
(dp6967
S'gcabar_CaE'
p6968
F0.0005
ssS'GATES'
p6969
(dp6970
S'h'
p6971
I1
sS'm'
p6972
I1
ssS'SUFFIX'
p6973
S'CaE'
p6974
sS'GMAX_NAME'
p6975
g6968
sS'STATES'
p6976
(lp6977
g6972
ag6971
asS'I_VALS'
p6978
(dp6979
F6.3
g16
(g20
S'\xe14\xa1\xe3Mb@?'
p6980
tp6981
Rp6982
sI37
g16
(g20
S'I\xbd\xea\xcfMb@?'
p6983
tp6984
Rp6985
ssS'ERROR_FLAGS'
p6986
(lp6987
ssS'181967_can3.mod'
p6988
(dp6989
S'G_VALS'
p6990
(dp6991
S'gcanbar_can2'
p6992
F0.0003
ssS'GATES'
p6993
(dp6994
S'h'
p6995
I2
sS'm'
p6996
I2
ssS'SUFFIX'
p6997
S'can2'
p6998
sS'GMAX_NAME'
p6999
g6992
sS'STATES'
p7000
(lp7001
g6996
ag6995
asS'I_VALS'
p7002
(dp7003
F6.3
g16
(g20
S'\xf15{\xa5!\xa7\x1a?'
p7004
tp7005
Rp7006
sI37
g16
(g20
S'\x99\x1d+\x93\xdb\xeb\x18?'
p7007
tp7008
Rp7009
ssS'ERROR_FLAGS'
p7010
(lp7011
ssS'184346_Ca_HVA.mod'
p7012
(dp7013
S'G_VALS'
p7014
(dp7015
S'gbar_Ca_HVA'
p7016
F1e-05
ssS'GATES'
p7017
(dp7018
S'h'
p7019
I1
sS'm'
p7020
I2
ssS'SUFFIX'
p7021
S'Ca_HVA'
p7022
sS'GMAX_NAME'
p7023
g7016
sS'STATES'
p7024
(lp7025
g7020
ag7019
asS'I_VALS'
p7026
(dp7027
F6.3
g16
(g20
S'\x1dT\xe3\x88\xb5\xf8\xe4>'
p7028
tp7029
Rp7030
sI37
g16
(g20
S'\x1dT\xe3\x88\xb5\xf8\xe4>'
p7031
tp7032
Rp7033
ssS'ERROR_FLAGS'
p7034
(lp7035
ssS'117207_CaT.mod'
p7036
(dp7037
S'G_VALS'
p7038
(dp7039
S'gbar_it'
p7040
F0.0008
ssS'GATES'
p7041
(dp7042
S'h'
p7043
I1
sS'm'
p7044
I2
ssS'SUFFIX'
p7045
S'it'
p7046
sS'GMAX_NAME'
p7047
g7040
sS'STATES'
p7048
(lp7049
g7044
ag7043
asS'I_VALS'
p7050
(dp7051
F6.3
g16
(g20
S'\xe7\xa8\xb1N\xe26J?'
p7052
tp7053
Rp7054
sI37
g16
(g20
S'\xe7\xa8\xb1N\xe26J?'
p7055
tp7056
Rp7057
ssS'ERROR_FLAGS'
p7058
(lp7059
ssS'19746_CA1CaG.mod'
p7060
(dp7061
S'G_VALS'
p7062
(dp7063
S'gcabar_CA1CaG'
p7064
F0.01
ssS'GATES'
p7065
(dp7066
S'h'
p7067
I1
sS'm'
p7068
I2
ssS'SUFFIX'
p7069
S'CA1CaG'
p7070
sS'GMAX_NAME'
p7071
g7064
sS'STATES'
p7072
(lp7073
g7068
ag7067
asS'I_VALS'
p7074
(dp7075
F6.3
g16
(g20
S'\xb19\xfbB\xe1z\x84?'
p7076
tp7077
Rp7078
sI37
g16
(g20
S'\xb19\xfbB\xe1z\x84?'
p7079
tp7080
Rp7081
ssS'ERROR_FLAGS'
p7082
(lp7083
ssS'144385_car.mod'
p7084
(dp7085
S'ERROR_FLAGS'
p7086
(lp7087
I8
assS'143604_ca.mod'
p7088
(dp7089
S'G_VALS'
p7090
(dp7091
S'gbar_ca'
p7092
F0.1
ssS'GATES'
p7093
(dp7094
S'h'
p7095
I1
sS'm'
p7096
I2
ssS'SUFFIX'
p7097
S'ca'
p7098
sS'GMAX_NAME'
p7099
g7092
sS'STATES'
p7100
(lp7101
g7096
ag7095
asS'I_VALS'
p7102
(dp7103
F6.3
g16
(g20
S']3\xb4z\xba\xdf\xc4>'
p7104
tp7105
Rp7106
sI37
g16
(g20
S'\x15\xbf\xbf\x0e\x89\xd3\x00?'
p7107
tp7108
Rp7109
ssS'ERROR_FLAGS'
p7110
(lp7111
ssS'3808_it2.mod'
p7112
(dp7113
S'G_VALS'
p7114
(dp7115
S'gcabar_iT2'
p7116
F0.00175
ssS'GATES'
p7117
(dp7118
S'h'
p7119
I1
sS'm'
p7120
I2
ssS'SUFFIX'
p7121
S'iT2'
p7122
sS'GMAX_NAME'
p7123
g7116
sS'STATES'
p7124
(lp7125
g7120
ag7119
asS'I_VALS'
p7126
(dp7127
F6.3
g16
(g20
S'\xa8\xbb\\\x96\x0b\xac\\?'
p7128
tp7129
Rp7130
sI37
g16
(g20
S'w\xd5KN\x04\xac\\?'
p7131
tp7132
Rp7133
ssS'ERROR_FLAGS'
p7134
(lp7135
ssS'149100_Ca_HVA.mod'
p7136
(dp7137
S'G_VALS'
p7138
(dp7139
S'gCa_HVAbar_Ca_HVA'
p7140
F1e-05
ssS'GATES'
p7141
(dp7142
S'h'
p7143
I1
sS'm'
p7144
I2
ssS'SUFFIX'
p7145
S'Ca_HVA'
p7146
sS'GMAX_NAME'
p7147
g7140
sS'STATES'
p7148
(lp7149
g7144
ag7143
asS'I_VALS'
p7150
(dp7151
F6.3
g16
(g20
S'\x1dT\xe3\x88\xb5\xf8\xe4>'
p7152
tp7153
Rp7154
sI37
g16
(g20
S'\x1dT\xe3\x88\xb5\xf8\xe4>'
p7155
tp7156
Rp7157
ssS'ERROR_FLAGS'
p7158
(lp7159
ssS'185355_CaN.mod'
p7160
(dp7161
S'G_VALS'
p7162
(dp7163
S'gncabar_nca'
p7164
F1.0
ssS'GATES'
p7165
(dp7166
S'c'
p7167
I2
sS'd'
p7168
I1
ssS'SUFFIX'
p7169
S'nca'
p7170
sS'GMAX_NAME'
p7171
g7164
sS'STATES'
p7172
(lp7173
g7167
ag7168
asS'I_VALS'
p7174
(dp7175
F6.3
g16
(g20
S'H2\x04\xa1\xb7\xff\xef?'
p7176
tp7177
Rp7178
sI37
g16
(g20
S'Y^X\xaa?\xff\xef?'
p7179
tp7180
Rp7181
ssS'ERROR_FLAGS'
p7182
(lp7183
ssS'151458_caL.mod'
p7184
(dp7185
S'ERROR_FLAGS'
p7186
(lp7187
I5
assS'87284_cal2.mod'
p7188
(dp7189
S'G_VALS'
p7190
(dp7191
S'gcalbar_cal'
p7192
F0.003
ssS'GATES'
p7193
(dp7194
S'm'
p7195
I2
ssS'SUFFIX'
p7196
S'cal'
p7197
sS'GMAX_NAME'
p7198
g7192
sS'STATES'
p7199
(lp7200
g7195
asS'I_VALS'
p7201
(dp7202
F6.3
g16
(g20
S"\xa5'\xfd\xa1\x8f\xbcO?"
p7203
tp7204
Rp7205
sI37
g16
(g20
S"q'\xb8\x0f\xbd\xacM?"
p7206
tp7207
Rp7208
ssS'ERROR_FLAGS'
p7209
(lp7210
ssS'98005_cal_ch.mod'
p7211
(dp7212
S'G_VALS'
p7213
(dp7214
S'gbar_cal_ch'
p7215
F0.003
ssS'GATES'
p7216
(dp7217
S'm'
p7218
I2
ssS'SUFFIX'
p7219
S'cal_ch'
p7220
sS'GMAX_NAME'
p7221
g7215
sS'STATES'
p7222
(lp7223
g7218
asS'I_VALS'
p7224
(dp7225
F6.3
g16
(g20
S'CE\xec\xa1\x8f\xbcO?'
p7226
tp7227
Rp7228
sI37
g16
(g20
S'\xfaX\xa8\x0f\xbd\xacM?'
p7229
tp7230
Rp7231
ssS'ERROR_FLAGS'
p7232
(lp7233
ssS'123927_CAnpq.mod'
p7234
(dp7235
S'ERROR_FLAGS'
p7236
(lp7237
I5
assS'147514_ca.mod'
p7238
(dp7239
S'G_VALS'
p7240
(dp7241
S'gbar_ca'
p7242
F0.1
ssS'GATES'
p7243
(dp7244
S'h'
p7245
I1
sS'm'
p7246
I2
ssS'SUFFIX'
p7247
S'ca'
p7248
sS'GMAX_NAME'
p7249
g7242
sS'STATES'
p7250
(lp7251
g7246
ag7245
asS'I_VALS'
p7252
(dp7253
F6.3
g16
(g20
S'y3\xb4z\xba\xdf\xc4>'
p7254
tp7255
Rp7256
sI37
g16
(g20
S'N\xc6\xbf\x0e\x89\xd3\x00?'
p7257
tp7258
Rp7259
ssS'ERROR_FLAGS'
p7260
(lp7261
ssS'182797_ICaT.mod'
p7262
(dp7263
S'G_VALS'
p7264
(dp7265
S'gbar_cat'
p7266
F0.003
ssS'GATES'
p7267
(dp7268
S'h'
p7269
I1
sS'm'
p7270
I2
ssS'SUFFIX'
p7271
S'cat'
p7272
sS'GMAX_NAME'
p7273
g7266
sS'STATES'
p7274
(lp7275
g7270
ag7269
asS'I_VALS'
p7276
(dp7277
F6.3
g16
(g20
S'/\xb8\xf0+\xdf\xa7P?'
p7278
tp7279
Rp7280
sI37
g16
(g20
S'R6\xb2\x9f\xac%O?'
p7281
tp7282
Rp7283
ssS'ERROR_FLAGS'
p7284
(lp7285
ssS'20212_My_cal.mod'
p7286
(dp7287
S'ERROR_FLAGS'
p7288
(lp7289
I4
assS'135839_caL3d.mod'
p7290
(dp7291
S'ERROR_FLAGS'
p7292
(lp7293
I5
assS'64229_cah_v2.mod'
p7294
(dp7295
S'ERROR_FLAGS'
p7296
(lp7297
I1
assS'101629_cat.mod'
p7298
(dp7299
S'G_VALS'
p7300
(dp7301
S'gcatbar_cat'
p7302
F0.003
ssS'GATES'
p7303
(dp7304
S'h'
p7305
I1
sS'm'
p7306
I2
ssS'SUFFIX'
p7307
S'cat'
p7308
sS'GMAX_NAME'
p7309
g7302
sS'STATES'
p7310
(lp7311
g7306
ag7305
asS'I_VALS'
p7312
(dp7313
F6.3
g16
(g20
S'\xda\xf5\r\xd3\xe2\xa7P?'
p7314
tp7315
Rp7316
sI37
g16
(g20
S'u1\x13\x8f\xb2%O?'
p7317
tp7318
Rp7319
ssS'ERROR_FLAGS'
p7320
(lp7321
ssS'184180_Ca_HVA.mod'
p7322
(dp7323
S'G_VALS'
p7324
(dp7325
S'gbar_Ca_HVA'
p7326
F1e-05
ssS'GATES'
p7327
(dp7328
S'h'
p7329
I1
sS'm'
p7330
I2
ssS'SUFFIX'
p7331
S'Ca_HVA'
p7332
sS'GMAX_NAME'
p7333
g7326
sS'STATES'
p7334
(lp7335
g7330
ag7329
asS'I_VALS'
p7336
(dp7337
F6.3
g16
(g20
S'\x1dT\xe3\x88\xb5\xf8\xe4>'
p7338
tp7339
Rp7340
sI37
g16
(g20
S'\x1dT\xe3\x88\xb5\xf8\xe4>'
p7341
tp7342
Rp7343
ssS'ERROR_FLAGS'
p7344
(lp7345
ssS'144450_cat.mod'
p7346
(dp7347
S'G_VALS'
p7348
(dp7349
S'gcatbar_cat'
p7350
F1.0
ssS'GATES'
p7351
(dp7352
S'h'
p7353
I1
sS'm'
p7354
I2
ssS'SUFFIX'
p7355
S'cat'
p7356
sS'GMAX_NAME'
p7357
g7350
sS'STATES'
p7358
(lp7359
g7354
ag7353
asS'I_VALS'
p7360
(dp7361
F6.3
g16
(g20
S'\xa1\x10\n\xbfC\x0e\xf0?'
p7362
tp7363
Rp7364
sI37
g16
(g20
S'\x89X\xcd \x81\x17\xf0?'
p7365
tp7366
Rp7367
ssS'ERROR_FLAGS'
p7368
(lp7369
ssS'19920_ca_a1h.mod'
p7370
(dp7371
S'G_VALS'
p7372
(dp7373
S'gbar_cat1h'
p7374
F0.008
ssS'GATES'
p7375
(dp7376
S'l'
p7377
I2
sS'n'
p7378
I1
ssS'SUFFIX'
p7379
S'cat1h'
p7380
sS'GMAX_NAME'
p7381
g7374
sS'STATES'
p7382
(lp7383
g7378
ag7377
asS'I_VALS'
p7384
(dp7385
F6.3
g16
(g20
S'\xd2\x18\x01\xdc\xa4\xc6\xca?'
p7386
tp7387
Rp7388
sI37
g16
(g20
S'$\x055\xd2\xa7\xd3\xca?'
p7389
tp7390
Rp7391
ssS'ERROR_FLAGS'
p7392
(lp7393
ssS'121060_chan_CaR.mod'
p7394
(dp7395
S'ERROR_FLAGS'
p7396
(lp7397
I5
assS'64229_nca.mod'
p7398
(dp7399
S'G_VALS'
p7400
(dp7401
S'gncabar_nca'
p7402
F1.0
ssS'GATES'
p7403
(dp7404
S'c'
p7405
I2
sS'd'
p7406
I1
ssS'SUFFIX'
p7407
S'nca'
p7408
sS'GMAX_NAME'
p7409
g7402
sS'STATES'
p7410
(lp7411
g7405
ag7406
asS'I_VALS'
p7412
(dp7413
F6.3
g16
(g20
S']\xbd\x04\xcf\xd4\xff\xef?'
p7414
tp7415
Rp7416
sI37
g16
(g20
S'Q\xf9;\x8c\xa5\xff\xef?'
p7417
tp7418
Rp7419
ssS'ERROR_FLAGS'
p7420
(lp7421
ssS'35358_cal.mod'
p7422
(dp7423
S'ERROR_FLAGS'
p7424
(lp7425
I1
assS'182797_ICaL.mod'
p7426
(dp7427
S'G_VALS'
p7428
(dp7429
S'gcalbar_cal'
p7430
F0.003
ssS'GATES'
p7431
(dp7432
S'm'
p7433
I2
ssS'SUFFIX'
p7434
S'cal'
p7435
sS'GMAX_NAME'
p7436
g7430
sS'STATES'
p7437
(lp7438
g7433
asS'I_VALS'
p7439
(dp7440
F6.3
g16
(g20
S'\xcc\x15\xfd\xa1\x8f\xbcO?'
p7441
tp7442
Rp7443
sI37
g16
(g20
S'/"\xb8\x0f\xbd\xacM?'
p7444
tp7445
Rp7446
ssS'ERROR_FLAGS'
p7447
(lp7448
ssS'151126_calH.mod'
p7449
(dp7450
S'G_VALS'
p7451
(dp7452
S'gcalbar_calH'
p7453
F1.0
ssS'GATES'
p7454
(dp7455
S'h'
p7456
I1
sS'm'
p7457
I3
ssS'SUFFIX'
p7458
S'calH'
p7459
sS'GMAX_NAME'
p7460
g7453
sS'STATES'
p7461
(lp7462
g7457
ag7456
asS'I_VALS'
p7463
(dp7464
F6.3
g16
(g20
S'\xb9>:<\xde\xfd\xef?'
p7465
tp7466
Rp7467
sI37
g16
(g20
S'\xb9>:<\xde\xfd\xef?'
p7468
tp7469
Rp7470
ssS'ERROR_FLAGS'
p7471
(lp7472
ssS'64229_tca.mod'
p7473
(dp7474
S'G_VALS'
p7475
(dp7476
S'gcatbar_cat'
p7477
F0.003
ssS'GATES'
p7478
(dp7479
S'h'
p7480
I1
sS'm'
p7481
I2
ssS'SUFFIX'
p7482
S'cat'
p7483
sS'GMAX_NAME'
p7484
g7477
sS'STATES'
p7485
(lp7486
g7481
ag7480
asS'I_VALS'
p7487
(dp7488
F6.3
g16
(g20
S'\xd4\x86\xdd+\xdf\xa7P?'
p7489
tp7490
Rp7491
sI37
g16
(g20
S'\x85\xf5\x8d\x9f\xac%O?'
p7492
tp7493
Rp7494
ssS'ERROR_FLAGS'
p7495
(lp7496
ssS'144392_cat.mod'
p7497
(dp7498
S'G_VALS'
p7499
(dp7500
S'gcatbar_cat'
p7501
F0.003
ssS'GATES'
p7502
(dp7503
S'h'
p7504
I1
sS'm'
p7505
I2
ssS'SUFFIX'
p7506
S'cat'
p7507
sS'GMAX_NAME'
p7508
g7501
sS'STATES'
p7509
(lp7510
g7505
ag7504
asS'I_VALS'
p7511
(dp7512
F6.3
g16
(g20
S'y\x8f\x9e\x85\x8d\x1fP?'
p7513
tp7514
Rp7515
sI37
g16
(g20
S'\xa2\xc4q\x81\xf9\rN?'
p7516
tp7517
Rp7518
ssS'ERROR_FLAGS'
p7519
(lp7520
ssS'143604_ca_a1h.mod'
p7521
(dp7522
S'G_VALS'
p7523
(dp7524
S'gbar_cat1h'
p7525
F0.008
ssS'GATES'
p7526
(dp7527
S'l'
p7528
I2
sS'n'
p7529
I1
ssS'SUFFIX'
p7530
S'cat1h'
p7531
sS'GMAX_NAME'
p7532
g7525
sS'STATES'
p7533
(lp7534
g7529
ag7528
asS'I_VALS'
p7535
(dp7536
F6.3
g16
(g20
S'\xd2\x18\x01\xdc\xa4\xc6\xca?'
p7537
tp7538
Rp7539
sI37
g16
(g20
S'$\x055\xd2\xa7\xd3\xca?'
p7540
tp7541
Rp7542
ssS'ERROR_FLAGS'
p7543
(lp7544
ssS'150240_ITGHK.mod'
p7545
(dp7546
S'ERROR_FLAGS'
p7547
(lp7548
I5
assS'20212_cat.mod'
p7549
(dp7550
S'G_VALS'
p7551
(dp7552
S'gcatbar_cat'
p7553
F1.0
ssS'GATES'
p7554
(dp7555
S'h'
p7556
I2
sS'm'
p7557
I2
ssS'SUFFIX'
p7558
S'cat'
p7559
sS'GMAX_NAME'
p7560
g7553
sS'STATES'
p7561
(lp7562
g7557
ag7556
asS'I_VALS'
p7563
(dp7564
F6.3
g16
(g20
S'\x15\x0b\x1c\xac\x8fs\xe8?'
p7565
tp7566
Rp7567
sI37
g16
(g20
S'jY\x13$b\xdc\xe6?'
p7568
tp7569
Rp7570
ssS'ERROR_FLAGS'
p7571
(lp7572
ssS'184331_Ca_HVA.mod'
p7573
(dp7574
S'G_VALS'
p7575
(dp7576
S'gbar_Ca_HVA'
p7577
F1e-05
ssS'GATES'
p7578
(dp7579
S'h'
p7580
I1
sS'm'
p7581
I2
ssS'SUFFIX'
p7582
S'Ca_HVA'
p7583
sS'GMAX_NAME'
p7584
g7577
sS'STATES'
p7585
(lp7586
g7581
ag7580
asS'I_VALS'
p7587
(dp7588
F6.3
g16
(g20
S'\x1dT\xe3\x88\xb5\xf8\xe4>'
p7589
tp7590
Rp7591
sI37
g16
(g20
S'\x1dT\xe3\x88\xb5\xf8\xe4>'
p7592
tp7593
Rp7594
ssS'ERROR_FLAGS'
p7595
(lp7596
ssS'139421_icapr.mod'
p7597
(dp7598
S'ERROR_FLAGS'
p7599
(lp7600
I1
assS'144482_cat.mod'
p7601
(dp7602
S'G_VALS'
p7603
(dp7604
S'gbar_cat'
p7605
F0.0008
ssS'GATES'
p7606
(dp7607
S'h'
p7608
I1
sS'm'
p7609
I2
ssS'SUFFIX'
p7610
S'cat'
p7611
sS'GMAX_NAME'
p7612
g7605
sS'STATES'
p7613
(lp7614
g7609
ag7608
asS'I_VALS'
p7615
(dp7616
F6.3
g16
(g20
S'\x03\xeb\xb4N\xe26J?'
p7617
tp7618
Rp7619
sI37
g16
(g20
S'\x03\xeb\xb4N\xe26J?'
p7620
tp7621
Rp7622
ssS'ERROR_FLAGS'
p7623
(lp7624
ssS'126637_CaP2cvode.mod'
p7625
(dp7626
S'G_VALS'
p7627
(dp7628
S'gcabar_CaP2cvode'
p7629
F0.0045
ssS'GATES'
p7630
(dp7631
S'm'
p7632
I1
ssS'SUFFIX'
p7633
S'CaP2cvode'
p7634
sS'GMAX_NAME'
p7635
g7629
sS'STATES'
p7636
(lp7637
g7632
asS'I_VALS'
p7638
(dp7639
F6.3
g16
(g20
S'\xce\x82\x1d\xc63nr?'
p7640
tp7641
Rp7642
sI37
g16
(g20
S'~\xe0\x7fexnr?'
p7643
tp7644
Rp7645
ssS'ERROR_FLAGS'
p7646
(lp7647
ssS'64195_caT.mod'
p7648
(dp7649
S'G_VALS'
p7650
(dp7651
S'gcabar_it2'
p7652
F0.0008
ssS'GATES'
p7653
(dp7654
S'h'
p7655
I1
sS'm'
p7656
I2
ssS'SUFFIX'
p7657
S'it2'
p7658
sS'GMAX_NAME'
p7659
g7652
sS'STATES'
p7660
(lp7661
g7656
ag7655
asS'I_VALS'
p7662
(dp7663
F6.3
g16
(g20
S'\x03\xeb\xb4N\xe26J?'
p7664
tp7665
Rp7666
sI37
g16
(g20
S'\x03\xeb\xb4N\xe26J?'
p7667
tp7668
Rp7669
ssS'ERROR_FLAGS'
p7670
(lp7671
ssS'127021_Golgi_Ca_LVA.mod'
p7672
(dp7673
S'ERROR_FLAGS'
p7674
(lp7675
I8
assS'123927_CAT.mod'
p7676
(dp7677
S'ERROR_FLAGS'
p7678
(lp7679
I5
assS'155601_LcaMig.mod'
p7680
(dp7681
S'G_VALS'
p7682
(dp7683
S'glcabar_lca'
p7684
F1.0
ssS'GATES'
p7685
(dp7686
S'm'
p7687
I2
ssS'SUFFIX'
p7688
S'lca'
p7689
sS'GMAX_NAME'
p7690
g7684
sS'STATES'
p7691
(lp7692
g7687
asS'I_VALS'
p7693
(dp7694
F6.3
g16
(g20
S'\xd3\xdc\xe9rm\xa9\xd4?'
p7695
tp7696
Rp7697
sI37
g16
(g20
S'vY\x1b\x07\xcbQ\xd3?'
p7698
tp7699
Rp7700
ssS'ERROR_FLAGS'
p7701
(lp7702
ssS'121600_it.mod'
p7703
(dp7704
S'ERROR_FLAGS'
p7705
(lp7706
I5
assS'50997_tsbp.mod'
p7707
(dp7708
S'G_VALS'
p7709
(dp7710
S'gcabar_tsbp'
p7711
F0.002
ssS'GATES'
p7712
(dp7713
S'c'
p7714
I3
ssS'SUFFIX'
p7715
S'tsbp'
p7716
sS'GMAX_NAME'
p7717
g7711
sS'STATES'
p7718
(lp7719
g7714
asS'I_VALS'
p7720
(dp7721
F6.3
g16
(g20
S'\x00\x1c\xa6\xb3Mb`?'
p7722
tp7723
Rp7724
sI37
g16
(g20
S'\xf4\xb9W\xb1Mb`?'
p7725
tp7726
Rp7727
ssS'ERROR_FLAGS'
p7728
(lp7729
ssS'182134_icaolmw.mod'
p7730
(dp7731
S'ERROR_FLAGS'
p7732
(lp7733
I1
assS'124063_Ganglion_hh.mod'
p7734
(dp7735
S'ERROR_FLAGS'
p7736
(lp7737
I8
assS'3800_ical.mod'
p7738
(dp7739
S'ERROR_FLAGS'
p7740
(lp7741
I5
assS'144482_casoma.mod'
p7742
(dp7743
S'G_VALS'
p7744
(dp7745
S'gbar_casoma'
p7746
F1.25
ssS'GATES'
p7747
(dp7748
S'h'
p7749
I1
sS'm'
p7750
I2
ssS'SUFFIX'
p7751
S'casoma'
p7752
sS'GMAX_NAME'
p7753
g7746
sS'STATES'
p7754
(lp7755
g7750
ag7749
asS'I_VALS'
p7756
(dp7757
F6.3
g16
(g20
S'j\x82\xfah\x0e4\xf2>'
p7758
tp7759
Rp7760
sI37
g16
(g20
S'\x101\xfef\x93X-?'
p7761
tp7762
Rp7763
ssS'ERROR_FLAGS'
p7764
(lp7765
ssS'112834_can.mod'
p7766
(dp7767
S'ERROR_FLAGS'
p7768
(lp7769
I5
assS'184310_Ca_HVA.mod'
p7770
(dp7771
S'G_VALS'
p7772
(dp7773
S'gbar_Ca_HVA'
p7774
F1e-05
ssS'GATES'
p7775
(dp7776
S'h'
p7777
I1
sS'm'
p7778
I2
ssS'SUFFIX'
p7779
S'Ca_HVA'
p7780
sS'GMAX_NAME'
p7781
g7774
sS'STATES'
p7782
(lp7783
g7778
ag7777
asS'I_VALS'
p7784
(dp7785
F6.3
g16
(g20
S'\x1dT\xe3\x88\xb5\xf8\xe4>'
p7786
tp7787
Rp7788
sI37
g16
(g20
S'\x1dT\xe3\x88\xb5\xf8\xe4>'
p7789
tp7790
Rp7791
ssS'ERROR_FLAGS'
p7792
(lp7793
ssS'123815_calH.mod'
p7794
(dp7795
S'G_VALS'
p7796
(dp7797
S'gcalbar_calH'
p7798
F1.0
ssS'GATES'
p7799
(dp7800
S'h'
p7801
I1
sS'm'
p7802
I3
ssS'SUFFIX'
p7803
S'calH'
p7804
sS'GMAX_NAME'
p7805
g7798
sS'STATES'
p7806
(lp7807
g7802
ag7801
asS'I_VALS'
p7808
(dp7809
F6.3
g16
(g20
S'\xf6\xef9L\xde\xfd\xef?'
p7810
tp7811
Rp7812
sI37
g16
(g20
S'\xf6\xef9L\xde\xfd\xef?'
p7813
tp7814
Rp7815
ssS'ERROR_FLAGS'
p7816
(lp7817
ssS'123815_nca.mod'
p7818
(dp7819
S'G_VALS'
p7820
(dp7821
S'gncabar_nca'
p7822
F1.0
ssS'GATES'
p7823
(dp7824
S'c'
p7825
I2
sS'd'
p7826
I1
ssS'SUFFIX'
p7827
S'nca'
p7828
sS'GMAX_NAME'
p7829
g7822
sS'STATES'
p7830
(lp7831
g7825
ag7826
asS'I_VALS'
p7832
(dp7833
F6.3
g16
(g20
S']\xbd\x04\xcf\xd4\xff\xef?'
p7834
tp7835
Rp7836
sI37
g16
(g20
S'Q\xf9;\x8c\xa5\xff\xef?'
p7837
tp7838
Rp7839
ssS'ERROR_FLAGS'
p7840
(lp7841
ssS'150024_CaLVA.mod'
p7842
(dp7843
S'ERROR_FLAGS'
p7844
(lp7845
I5
assS'135787_caL3d.mod'
p7846
(dp7847
S'ERROR_FLAGS'
p7848
(lp7849
I5
assS'144450_calH.mod'
p7850
(dp7851
S'G_VALS'
p7852
(dp7853
S'gcalbar_calH'
p7854
F1.0
ssS'GATES'
p7855
(dp7856
S'h'
p7857
I2
sS'm'
p7858
I3
ssS'SUFFIX'
p7859
S'calH'
p7860
sS'GMAX_NAME'
p7861
g7854
sS'STATES'
p7862
(lp7863
g7858
ag7857
asS'I_VALS'
p7864
(dp7865
F6.3
g16
(g20
S'Z\xfd\xb3/\xcc\xf9\xef?'
p7866
tp7867
Rp7868
sI37
g16
(g20
S'\x93\xd1fN\xcc\xf9\xef?'
p7869
tp7870
Rp7871
ssS'ERROR_FLAGS'
p7872
(lp7873
ssS'112834_cat.mod'
p7874
(dp7875
S'ERROR_FLAGS'
p7876
(lp7877
I5
assS'144089_car.mod'
p7878
(dp7879
S'G_VALS'
p7880
(dp7881
S'gcabar_car'
p7882
F1.0
ssS'GATES'
p7883
(dp7884
S'h'
p7885
I1
sS'm'
p7886
I3
ssS'SUFFIX'
p7887
S'car'
p7888
sS'GMAX_NAME'
p7889
g7882
sS'STATES'
p7890
(lp7891
g7886
ag7885
asS'I_VALS'
p7892
(dp7893
F6.3
g16
(g20
S'=I\xa6h\xb1\xfd\xef?'
p7894
tp7895
Rp7896
sI37
g16
(g20
S'=I\xa6h\xb1\xfd\xef?'
p7897
tp7898
Rp7899
ssS'ERROR_FLAGS'
p7900
(lp7901
ssS'121060_chan_CaQ.mod'
p7902
(dp7903
S'ERROR_FLAGS'
p7904
(lp7905
I5
assS'150024_CaHVA.mod'
p7906
(dp7907
S'ERROR_FLAGS'
p7908
(lp7909
I5
assS'19491_L_HVA_Ca.mod'
p7910
(dp7911
S'G_VALS'
p7912
(dp7913
S'gcabar_L_HVA_Ca'
p7914
F0.0003
ssS'GATES'
p7915
(dp7916
S'm'
p7917
I1
ssS'SUFFIX'
p7918
S'L_HVA_Ca'
p7919
sS'GMAX_NAME'
p7920
g7914
sS'STATES'
p7921
(lp7922
g7917
asS'I_VALS'
p7923
(dp7924
F6.3
g16
(g20
S'ay\xaf/*\xa93?'
p7925
tp7926
Rp7927
sI37
g16
(g20
S'ay\xaf/*\xa93?'
p7928
tp7929
Rp7930
ssS'ERROR_FLAGS'
p7931
(lp7932
ssS'20212_somacar.mod'
p7933
(dp7934
S'G_VALS'
p7935
(dp7936
S'gcabar_somacar'
p7937
F1.0
ssS'GATES'
p7938
(dp7939
S'h'
p7940
I1
sS'm'
p7941
I3
ssS'SUFFIX'
p7942
S'somacar'
p7943
sS'GMAX_NAME'
p7944
g7937
sS'STATES'
p7945
(lp7946
g7941
ag7940
asS'I_VALS'
p7947
(dp7948
F6.3
g16
(g20
S'OA=\xbc\x8f\xfd\xef?'
p7949
tp7950
Rp7951
sI37
g16
(g20
S'OA=\xbc\x8f\xfd\xef?'
p7952
tp7953
Rp7954
ssS'ERROR_FLAGS'
p7955
(lp7956
ssS'156780_Ca_LVAst.mod'
p7957
(dp7958
S'G_VALS'
p7959
(dp7960
S'gCa_LVAstbar_Ca_LVAst'
p7961
F1e-05
ssS'GATES'
p7962
(dp7963
S'h'
p7964
I1
sS'm'
p7965
I2
ssS'SUFFIX'
p7966
S'Ca_LVAst'
p7967
sS'GMAX_NAME'
p7968
g7961
sS'STATES'
p7969
(lp7970
g7965
ag7964
asS'I_VALS'
p7971
(dp7972
F6.3
g16
(g20
S'\x16[\xe1\x88\xb5\xf8\xe4>'
p7973
tp7974
Rp7975
sI37
g16
(g20
S'\x16[\xe1\x88\xb5\xf8\xe4>'
p7976
tp7977
Rp7978
ssS'ERROR_FLAGS'
p7979
(lp7980
ssS'147757_calH.mod'
p7981
(dp7982
S'G_VALS'
p7983
(dp7984
S'gcalbar_calH'
p7985
F1.0
ssS'GATES'
p7986
(dp7987
S'h'
p7988
I1
sS'm'
p7989
I3
ssS'SUFFIX'
p7990
S'calH'
p7991
sS'GMAX_NAME'
p7992
g7985
sS'STATES'
p7993
(lp7994
g7989
ag7988
asS'I_VALS'
p7995
(dp7996
F6.3
g16
(g20
S'\xb9>:<\xde\xfd\xef?'
p7997
tp7998
Rp7999
sI37
g16
(g20
S'\xb9>:<\xde\xfd\xef?'
p8000
tp8001
Rp8002
ssS'ERROR_FLAGS'
p8003
(lp8004
ssS'138382_newCaP_DP.mod'
p8005
(dp8006
S'ERROR_FLAGS'
p8007
(lp8008
I5
assS'149174_tca.mod'
p8009
(dp8010
S'G_VALS'
p8011
(dp8012
S'gcatbar_cat'
p8013
F0.003
ssS'GATES'
p8014
(dp8015
S'h'
p8016
I1
sS'm'
p8017
I2
ssS'SUFFIX'
p8018
S'cat'
p8019
sS'GMAX_NAME'
p8020
g8013
sS'STATES'
p8021
(lp8022
g8017
ag8016
asS'I_VALS'
p8023
(dp8024
F6.3
g16
(g20
S'\xd4\x86\xdd+\xdf\xa7P?'
p8025
tp8026
Rp8027
sI37
g16
(g20
S'\x85\xf5\x8d\x9f\xac%O?'
p8028
tp8029
Rp8030
ssS'ERROR_FLAGS'
p8031
(lp8032
ssS'139656_Golgi_Ca_LVA.mod'
p8033
(dp8034
S'ERROR_FLAGS'
p8035
(lp8036
I8
assS'150284_can.mod'
p8037
(dp8038
S'ERROR_FLAGS'
p8039
(lp8040
I5
assS'112834_caL.mod'
p8041
(dp8042
S'ERROR_FLAGS'
p8043
(lp8044
I5
assS'184297_Ca_HVA.mod'
p8045
(dp8046
S'G_VALS'
p8047
(dp8048
S'gbar_Ca_HVA'
p8049
F1e-05
ssS'GATES'
p8050
(dp8051
S'h'
p8052
I1
sS'm'
p8053
I2
ssS'SUFFIX'
p8054
S'Ca_HVA'
p8055
sS'GMAX_NAME'
p8056
g8049
sS'STATES'
p8057
(lp8058
g8053
ag8052
asS'I_VALS'
p8059
(dp8060
F6.3
g16
(g20
S'\x1dT\xe3\x88\xb5\xf8\xe4>'
p8061
tp8062
Rp8063
sI37
g16
(g20
S'\x1dT\xe3\x88\xb5\xf8\xe4>'
p8064
tp8065
Rp8066
ssS'ERROR_FLAGS'
p8067
(lp8068
ssS'151825_ca_h.mod'
p8069
(dp8070
S'ERROR_FLAGS'
p8071
(lp8072
I5
assS'144490_cat_v2.mod'
p8073
(dp8074
S'G_VALS'
p8075
(dp8076
S'gcatbar_cat'
p8077
F1.0
ssS'GATES'
p8078
(dp8079
S'h'
p8080
I2
sS'm'
p8081
I2
ssS'SUFFIX'
p8082
S'cat'
p8083
sS'GMAX_NAME'
p8084
g8077
sS'STATES'
p8085
(lp8086
g8081
ag8080
asS'I_VALS'
p8087
(dp8088
F6.3
g16
(g20
S'\x15\x0b\x1c\xac\x8fs\xe8?'
p8089
tp8090
Rp8091
sI37
g16
(g20
S'jY\x13$b\xdc\xe6?'
p8092
tp8093
Rp8094
ssS'ERROR_FLAGS'
p8095
(lp8096
ssS'135903_icaolmw.mod'
p8097
(dp8098
S'ERROR_FLAGS'
p8099
(lp8100
I1
assS'147867_cal2.mod'
p8101
(dp8102
S'G_VALS'
p8103
(dp8104
S'gcalbar_cal'
p8105
F0.003
ssS'GATES'
p8106
(dp8107
S'm'
p8108
I2
ssS'SUFFIX'
p8109
S'cal'
p8110
sS'GMAX_NAME'
p8111
g8105
sS'STATES'
p8112
(lp8113
g8108
asS'I_VALS'
p8114
(dp8115
F6.3
g16
(g20
S'\xcc\x15\xfd\xa1\x8f\xbcO?'
p8116
tp8117
Rp8118
sI37
g16
(g20
S'/"\xb8\x0f\xbd\xacM?'
p8119
tp8120
Rp8121
ssS'ERROR_FLAGS'
p8122
(lp8123
ssS'45539_cat.mod'
p8124
(dp8125
S'G_VALS'
p8126
(dp8127
S'gbar_cat'
p8128
F1.0
ssS'GATES'
p8129
(dp8130
S'h'
p8131
I1
sS'm'
p8132
I2
ssS'SUFFIX'
p8133
S'cat'
p8134
sS'GMAX_NAME'
p8135
g8128
sS'STATES'
p8136
(lp8137
g8132
ag8131
asS'I_VALS'
p8138
(dp8139
F6.3
g16
(g20
S'\xbbe\xb9 \xe1\xfd\xef?'
p8140
tp8141
Rp8142
sI37
g16
(g20
S'\xbbe\xb9 \xe1\xfd\xef?'
p8143
tp8144
Rp8145
ssS'ERROR_FLAGS'
p8146
(lp8147
ssS'184350_Ca_HVA.mod'
p8148
(dp8149
S'G_VALS'
p8150
(dp8151
S'gbar_Ca_HVA'
p8152
F1e-05
ssS'GATES'
p8153
(dp8154
S'h'
p8155
I1
sS'm'
p8156
I2
ssS'SUFFIX'
p8157
S'Ca_HVA'
p8158
sS'GMAX_NAME'
p8159
g8152
sS'STATES'
p8160
(lp8161
g8156
ag8155
asS'I_VALS'
p8162
(dp8163
F6.3
g16
(g20
S'\x1dT\xe3\x88\xb5\xf8\xe4>'
p8164
tp8165
Rp8166
sI37
g16
(g20
S'\x1dT\xe3\x88\xb5\xf8\xe4>'
p8167
tp8168
Rp8169
ssS'ERROR_FLAGS'
p8170
(lp8171
ssS'184148_Ca_HVA.mod'
p8172
(dp8173
S'G_VALS'
p8174
(dp8175
S'gbar_Ca_HVA'
p8176
F1e-05
ssS'GATES'
p8177
(dp8178
S'h'
p8179
I1
sS'm'
p8180
I2
ssS'SUFFIX'
p8181
S'Ca_HVA'
p8182
sS'GMAX_NAME'
p8183
g8176
sS'STATES'
p8184
(lp8185
g8180
ag8179
asS'I_VALS'
p8186
(dp8187
F6.3
g16
(g20
S'\x1dT\xe3\x88\xb5\xf8\xe4>'
p8188
tp8189
Rp8190
sI37
g16
(g20
S'\x1dT\xe3\x88\xb5\xf8\xe4>'
p8191
tp8192
Rp8193
ssS'ERROR_FLAGS'
p8194
(lp8195
ssS'18502_cachan.mod'
p8196
(dp8197
S'ERROR_FLAGS'
p8198
(lp8199
I5
assS'123897_ca.mod'
p8200
(dp8201
S'G_VALS'
p8202
(dp8203
S'gbar_ca'
p8204
F0.1
ssS'GATES'
p8205
(dp8206
S'h'
p8207
I1
sS'm'
p8208
I2
ssS'SUFFIX'
p8209
S'ca'
p8210
sS'GMAX_NAME'
p8211
g8204
sS'STATES'
p8212
(lp8213
g8208
ag8207
asS'I_VALS'
p8214
(dp8215
F6.3
g16
(g20
S'{3\xb4z\xba\xdf\xc4>'
p8216
tp8217
Rp8218
sI37
g16
(g20
S'G\xc6\xbf\x0e\x89\xd3\x00?'
p8219
tp8220
Rp8221
ssS'ERROR_FLAGS'
p8222
(lp8223
ssS'182134_icapr.mod'
p8224
(dp8225
S'ERROR_FLAGS'
p8226
(lp8227
I1
assS'155057_can.mod'
p8228
(dp8229
S'ERROR_FLAGS'
p8230
(lp8231
I4
assS'20212_cat_v2.mod'
p8232
(dp8233
S'ERROR_FLAGS'
p8234
(lp8235
I5
assS'153280_ch_CavT.mod'
p8236
(dp8237
S'G_VALS'
p8238
(dp8239
S'gmax_ch_CavT'
p8240
F0.003
ssS'GATES'
p8241
(dp8242
S'h'
p8243
I1
sS'm'
p8244
I2
ssS'SUFFIX'
p8245
S'ch_CavT'
p8246
sS'GMAX_NAME'
p8247
g8240
sS'STATES'
p8248
(lp8249
g8244
ag8243
asS'I_VALS'
p8250
(dp8251
F6.3
g16
(g20
S'\xd4\x86\xdd+\xdf\xa7P?'
p8252
tp8253
Rp8254
sI37
g16
(g20
S'\x85\xf5\x8d\x9f\xac%O?'
p8255
tp8256
Rp8257
ssS'ERROR_FLAGS'
p8258
(lp8259
ssS'3263_cat.mod'
p8260
(dp8261
S'G_VALS'
p8262
(dp8263
S'gcatbar_cat'
p8264
F0.003
ssS'GATES'
p8265
(dp8266
S'h'
p8267
I1
sS'm'
p8268
I2
ssS'SUFFIX'
p8269
S'cat'
p8270
sS'GMAX_NAME'
p8271
g8264
sS'STATES'
p8272
(lp8273
g8268
ag8267
asS'I_VALS'
p8274
(dp8275
F6.3
g16
(g20
S'\xd4\x86\xdd+\xdf\xa7P?'
p8276
tp8277
Rp8278
sI37
g16
(g20
S'\x85\xf5\x8d\x9f\xac%O?'
p8279
tp8280
Rp8281
ssS'ERROR_FLAGS'
p8282
(lp8283
ssS'12631_IT2_huguenard.mod'
p8284
(dp8285
S'G_VALS'
p8286
(dp8287
S'gcabar_it2'
p8288
F0.0008
ssS'GATES'
p8289
(dp8290
S'h'
p8291
I1
sS'm'
p8292
I2
ssS'SUFFIX'
p8293
S'it2'
p8294
sS'GMAX_NAME'
p8295
g8288
sS'STATES'
p8296
(lp8297
g8292
ag8291
asS'I_VALS'
p8298
(dp8299
F6.3
g16
(g20
S'C\xff\x1a\xde\xe56J?'
p8300
tp8301
Rp8302
sI37
g16
(g20
S'\x92:u\xe9\xe26J?'
p8303
tp8304
Rp8305
ssS'ERROR_FLAGS'
p8306
(lp8307
ssS'17663_IT2.mod'
p8308
(dp8309
S'G_VALS'
p8310
(dp8311
S'gcabar_it2'
p8312
F0.0008
ssS'GATES'
p8313
(dp8314
S'h'
p8315
I1
sS'm'
p8316
I2
ssS'SUFFIX'
p8317
S'it2'
p8318
sS'GMAX_NAME'
p8319
g8312
sS'STATES'
p8320
(lp8321
g8316
ag8315
asS'I_VALS'
p8322
(dp8323
F6.3
g16
(g20
S'Y\n\x1b\xde\xe56J?'
p8324
tp8325
Rp8326
sI37
g16
(g20
S'\xde\\w\xe9\xe26J?'
p8327
tp8328
Rp8329
ssS'ERROR_FLAGS'
p8330
(lp8331
ssS'181967_cat3.mod'
p8332
(dp8333
S'G_VALS'
p8334
(dp8335
S'gcatbar_cat3'
p8336
F0.003
ssS'GATES'
p8337
(dp8338
S'h'
p8339
I1
sS'm'
p8340
I2
ssS'SUFFIX'
p8341
S'cat3'
p8342
sS'GMAX_NAME'
p8343
g8336
sS'STATES'
p8344
(lp8345
g8340
ag8339
asS'I_VALS'
p8346
(dp8347
F6.3
g16
(g20
S'\xd4\x86\xdd+\xdf\xa7P?'
p8348
tp8349
Rp8350
sI37
g16
(g20
S'\x85\xf5\x8d\x9f\xac%O?'
p8351
tp8352
Rp8353
ssS'ERROR_FLAGS'
p8354
(lp8355
ssS'153196_ca.mod'
p8356
(dp8357
S'G_VALS'
p8358
(dp8359
S'gbar_ca'
p8360
F0.1
ssS'GATES'
p8361
(dp8362
S'h'
p8363
I1
sS'm'
p8364
I2
ssS'SUFFIX'
p8365
S'ca'
p8366
sS'GMAX_NAME'
p8367
g8360
sS'STATES'
p8368
(lp8369
g8364
ag8363
asS'I_VALS'
p8370
(dp8371
F6.3
g16
(g20
S'y3\xb4z\xba\xdf\xc4>'
p8372
tp8373
Rp8374
sI37
g16
(g20
S'N\xc6\xbf\x0e\x89\xd3\x00?'
p8375
tp8376
Rp8377
ssS'ERROR_FLAGS'
p8378
(lp8379
ssS'187473_cal.mod'
p8380
(dp8381
S'ERROR_FLAGS'
p8382
(lp8383
I4
assS'126814_can2.mod'
p8384
(dp8385
S'G_VALS'
p8386
(dp8387
S'gcanbar_can'
p8388
F0.0003
ssS'GATES'
p8389
(dp8390
S'h'
p8391
I2
sS'm'
p8392
I2
ssS'SUFFIX'
p8393
S'can'
p8394
sS'GMAX_NAME'
p8395
g8388
sS'STATES'
p8396
(lp8397
g8392
ag8391
asS'I_VALS'
p8398
(dp8399
F6.3
g16
(g20
S'\x0e$\xa8R_\xa6\x1a?'
p8400
tp8401
Rp8402
sI37
g16
(g20
S'\x07\xce\xb1\xdf%\xeb\x18?'
p8403
tp8404
Rp8405
ssS'ERROR_FLAGS'
p8406
(lp8407
ssS'12631_IT_wang.mod'
p8408
(dp8409
S'ERROR_FLAGS'
p8410
(lp8411
I4
assS'144526_CaT.mod'
p8412
(dp8413
S'G_VALS'
p8414
(dp8415
S'gcabar_it2'
p8416
F8.0
ssS'GATES'
p8417
(dp8418
S'h'
p8419
I1
sS'm'
p8420
I2
ssS'SUFFIX'
p8421
S'it2'
p8422
sS'GMAX_NAME'
p8423
g8416
sS'STATES'
p8424
(lp8425
g8420
ag8419
asS'I_VALS'
p8426
(dp8427
F6.3
g16
(g20
S'\x04\xeb\xb4N\xe26J?'
p8428
tp8429
Rp8430
sI37
g16
(g20
S'\x04\xeb\xb4N\xe26J?'
p8431
tp8432
Rp8433
ssS'ERROR_FLAGS'
p8434
(lp8435
ssS'147514_L_HVA_Ca.mod'
p8436
(dp8437
S'G_VALS'
p8438
(dp8439
S'gcabar_L_HVA_Ca'
p8440
F0.0003
ssS'GATES'
p8441
(dp8442
S'm'
p8443
I1
ssS'SUFFIX'
p8444
S'L_HVA_Ca'
p8445
sS'GMAX_NAME'
p8446
g8440
sS'STATES'
p8447
(lp8448
g8443
asS'I_VALS'
p8449
(dp8450
F6.3
g16
(g20
S'ay\xaf/*\xa93?'
p8451
tp8452
Rp8453
sI37
g16
(g20
S'ay\xaf/*\xa93?'
p8454
tp8455
Rp8456
ssS'ERROR_FLAGS'
p8457
(lp8458
ssS'146026_SlowCa.mod'
p8459
(dp8460
S'G_VALS'
p8461
(dp8462
S'gbar_sca'
p8463
F1.0
ssS'GATES'
p8464
(dp8465
S'h'
p8466
I1
sS'm'
p8467
I2
ssS'SUFFIX'
p8468
S'sca'
p8469
sS'GMAX_NAME'
p8470
g8463
sS'STATES'
p8471
(lp8472
g8467
ag8466
asS'I_VALS'
p8473
(dp8474
F6.3
g16
(g20
S'\xaa/a\x19\xa9\x17\xfa>'
p8475
tp8476
Rp8477
sI37
g16
(g20
S'3\xecjRk\x085?'
p8478
tp8479
Rp8480
ssS'ERROR_FLAGS'
p8481
(lp8482
ssS'64229_cah.mod'
p8483
(dp8484
S'ERROR_FLAGS'
p8485
(lp8486
I1
assS'144089_cat.mod'
p8487
(dp8488
S'G_VALS'
p8489
(dp8490
S'gcatbar_cat'
p8491
F1.0
ssS'GATES'
p8492
(dp8493
S'h'
p8494
I1
sS'm'
p8495
I2
ssS'SUFFIX'
p8496
S'cat'
p8497
sS'GMAX_NAME'
p8498
g8491
sS'STATES'
p8499
(lp8500
g8495
ag8494
asS'I_VALS'
p8501
(dp8502
F6.3
g16
(g20
S'\xa1\x10\n\xbfC\x0e\xf0?'
p8503
tp8504
Rp8505
sI37
g16
(g20
S'\x89X\xcd \x81\x17\xf0?'
p8506
tp8507
Rp8508
ssS'ERROR_FLAGS'
p8509
(lp8510
ssS'155057_cal.mod'
p8511
(dp8512
S'ERROR_FLAGS'
p8513
(lp8514
I8
assS'184339_Ca_HVA.mod'
p8515
(dp8516
S'G_VALS'
p8517
(dp8518
S'gbar_Ca_HVA'
p8519
F1e-05
ssS'GATES'
p8520
(dp8521
S'h'
p8522
I1
sS'm'
p8523
I2
ssS'SUFFIX'
p8524
S'Ca_HVA'
p8525
sS'GMAX_NAME'
p8526
g8519
sS'STATES'
p8527
(lp8528
g8523
ag8522
asS'I_VALS'
p8529
(dp8530
F6.3
g16
(g20
S'\x1dT\xe3\x88\xb5\xf8\xe4>'
p8531
tp8532
Rp8533
sI37
g16
(g20
S'\x1dT\xe3\x88\xb5\xf8\xe4>'
p8534
tp8535
Rp8536
ssS'ERROR_FLAGS'
p8537
(lp8538
ssS'151825_ca_r.mod'
p8539
(dp8540
S'ERROR_FLAGS'
p8541
(lp8542
I5
assS'144490_calH.mod'
p8543
(dp8544
S'G_VALS'
p8545
(dp8546
S'gcalbar_calH'
p8547
F1.0
sS'gmax_calH'
p8548
F0.0
ssS'GATES'
p8549
(dp8550
S'h'
p8551
I1
sS'm'
p8552
I3
ssS'SUFFIX'
p8553
S'calH'
p8554
sS'GMAX_NAME'
p8555
g8547
sS'STATES'
p8556
(lp8557
g8552
ag8551
asS'I_VALS'
p8558
(dp8559
F6.3
g16
(g20
S'\x00\x00\x00\x00\x00\x00\xf0?'
p8560
tp8561
Rp8562
sI37
g16
(g20
S'\x00\x00\x00\x00\x00\x00\xf0?'
p8563
tp8564
Rp8565
ssS'ERROR_FLAGS'
p8566
(lp8567
ssS'108458_CaH.mod'
p8568
(dp8569
S'G_VALS'
p8570
(dp8571
S'gbar_ca'
p8572
F0.1
ssS'GATES'
p8573
(dp8574
S'h'
p8575
I1
sS'm'
p8576
I2
ssS'SUFFIX'
p8577
S'ca'
p8578
sS'GMAX_NAME'
p8579
g8572
sS'STATES'
p8580
(lp8581
g8576
ag8575
asS'I_VALS'
p8582
(dp8583
F6.3
g16
(g20
S'y3\xb4z\xba\xdf\xc4>'
p8584
tp8585
Rp8586
sI37
g16
(g20
S'N\xc6\xbf\x0e\x89\xd3\x00?'
p8587
tp8588
Rp8589
ssS'ERROR_FLAGS'
p8590
(lp8591
ssS'121060_chan_CaN.mod'
p8592
(dp8593
S'ERROR_FLAGS'
p8594
(lp8595
I5
assS'180373_Ca_HVA.mod'
p8596
(dp8597
S'G_VALS'
p8598
(dp8599
S'gCa_HVAbar_Ca_HVA'
p8600
F1e-05
ssS'GATES'
p8601
(dp8602
S'h'
p8603
I1
sS'm'
p8604
I2
ssS'SUFFIX'
p8605
S'Ca_HVA'
p8606
sS'GMAX_NAME'
p8607
g8600
sS'STATES'
p8608
(lp8609
g8604
ag8603
asS'I_VALS'
p8610
(dp8611
F6.3
g16
(g20
S'\x1dT\xe3\x88\xb5\xf8\xe4>'
p8612
tp8613
Rp8614
sI37
g16
(g20
S'\x1dT\xe3\x88\xb5\xf8\xe4>'
p8615
tp8616
Rp8617
ssS'ERROR_FLAGS'
p8618
(lp8619
ssS'112834_caL13.mod'
p8620
(dp8621
S'ERROR_FLAGS'
p8622
(lp8623
I5
assS'64229_calRT03.mod'
p8624
(dp8625
S'ERROR_FLAGS'
p8626
(lp8627
I1
assS'149100_Ca_LVAst.mod'
p8628
(dp8629
S'G_VALS'
p8630
(dp8631
S'gCa_LVAstbar_Ca_LVAst'
p8632
F1e-05
ssS'GATES'
p8633
(dp8634
S'h'
p8635
I1
sS'm'
p8636
I2
ssS'SUFFIX'
p8637
S'Ca_LVAst'
p8638
sS'GMAX_NAME'
p8639
g8632
sS'STATES'
p8640
(lp8641
g8636
ag8635
asS'I_VALS'
p8642
(dp8643
F6.3
g16
(g20
S'\x16[\xe1\x88\xb5\xf8\xe4>'
p8644
tp8645
Rp8646
sI37
g16
(g20
S'\x16[\xe1\x88\xb5\xf8\xe4>'
p8647
tp8648
Rp8649
ssS'ERROR_FLAGS'
p8650
(lp8651
ssS'184323_Ca_LVA.mod'
p8652
(dp8653
S'G_VALS'
p8654
(dp8655
S'gbar_Ca_LVA'
p8656
F1e-05
ssS'GATES'
p8657
(dp8658
S'h'
p8659
I1
sS'm'
p8660
I2
ssS'SUFFIX'
p8661
S'Ca_LVA'
p8662
sS'GMAX_NAME'
p8663
g8656
sS'STATES'
p8664
(lp8665
g8660
ag8659
asS'I_VALS'
p8666
(dp8667
F6.3
g16
(g20
S'%\x90\xe3\x88\xb5\xf8\xe4>'
p8668
tp8669
Rp8670
sI37
g16
(g20
S'\xc6\xb6\xe0\x88\xb5\xf8\xe4>'
p8671
tp8672
Rp8673
ssS'ERROR_FLAGS'
p8674
(lp8675
ssS'113997_ICaL.mod'
p8676
(dp8677
S'ERROR_FLAGS'
p8678
(lp8679
I5
assS'184337_Ca_HVA.mod'
p8680
(dp8681
S'G_VALS'
p8682
(dp8683
S'gbar_Ca_HVA'
p8684
F1e-05
ssS'GATES'
p8685
(dp8686
S'h'
p8687
I1
sS'm'
p8688
I2
ssS'SUFFIX'
p8689
S'Ca_HVA'
p8690
sS'GMAX_NAME'
p8691
g8684
sS'STATES'
p8692
(lp8693
g8688
ag8687
asS'I_VALS'
p8694
(dp8695
F6.3
g16
(g20
S'\x1dT\xe3\x88\xb5\xf8\xe4>'
p8696
tp8697
Rp8698
sI37
g16
(g20
S'\x1dT\xe3\x88\xb5\xf8\xe4>'
p8699
tp8700
Rp8701
ssS'ERROR_FLAGS'
p8702
(lp8703
ssS'184152_Ca_LVA.mod'
p8704
(dp8705
S'G_VALS'
p8706
(dp8707
S'gbar_Ca_LVA'
p8708
F1e-05
ssS'GATES'
p8709
(dp8710
S'h'
p8711
I1
sS'm'
p8712
I2
ssS'SUFFIX'
p8713
S'Ca_LVA'
p8714
sS'GMAX_NAME'
p8715
g8708
sS'STATES'
p8716
(lp8717
g8712
ag8711
asS'I_VALS'
p8718
(dp8719
F6.3
g16
(g20
S'%\x90\xe3\x88\xb5\xf8\xe4>'
p8720
tp8721
Rp8722
sI37
g16
(g20
S'\xc6\xb6\xe0\x88\xb5\xf8\xe4>'
p8723
tp8724
Rp8725
ssS'ERROR_FLAGS'
p8726
(lp8727
ssS'45539_cal.mod'
p8728
(dp8729
S'G_VALS'
p8730
(dp8731
S'gbar_cal'
p8732
F1.0
ssS'GATES'
p8733
(dp8734
S'm'
p8735
I2
ssS'SUFFIX'
p8736
S'cal'
p8737
sS'GMAX_NAME'
p8738
g8732
sS'STATES'
p8739
(lp8740
g8735
asS'I_VALS'
p8741
(dp8742
F6.3
g16
(g20
S"\x92\xbd='\x9d\xfe\xef?"
p8743
tp8744
Rp8745
sI37
g16
(g20
S"\x92\xbd='\x9d\xfe\xef?"
p8746
tp8747
Rp8748
ssS'ERROR_FLAGS'
p8749
(lp8750
ssS'144490_calH_v2.mod'
p8751
(dp8752
S'G_VALS'
p8753
(dp8754
S'gcalbar_calH'
p8755
F1.0
ssS'GATES'
p8756
(dp8757
S'h'
p8758
I1
sS'm'
p8759
I3
ssS'SUFFIX'
p8760
S'calH'
p8761
sS'GMAX_NAME'
p8762
g8755
sS'STATES'
p8763
(lp8764
g8759
ag8758
asS'I_VALS'
p8765
(dp8766
F6.3
g16
(g20
S'\xf6\xef9L\xde\xfd\xef?'
p8767
tp8768
Rp8769
sI37
g16
(g20
S'\xf6\xef9L\xde\xfd\xef?'
p8770
tp8771
Rp8772
ssS'ERROR_FLAGS'
p8773
(lp8774
ssS'108458_CaT.mod'
p8775
(dp8776
S'G_VALS'
p8777
(dp8778
S'gbar_it'
p8779
F0.0008
ssS'GATES'
p8780
(dp8781
S'h'
p8782
I1
sS'm'
p8783
I2
ssS'SUFFIX'
p8784
S'it'
p8785
sS'GMAX_NAME'
p8786
g8779
sS'STATES'
p8787
(lp8788
g8783
ag8782
asS'I_VALS'
p8789
(dp8790
F6.3
g16
(g20
S'\x03\xeb\xb4N\xe26J?'
p8791
tp8792
Rp8793
sI37
g16
(g20
S'\x03\xeb\xb4N\xe26J?'
p8794
tp8795
Rp8796
ssS'ERROR_FLAGS'
p8797
(lp8798
ssS'139421_icaolmw.mod'
p8799
(dp8800
S'ERROR_FLAGS'
p8801
(lp8802
I1
assS'150284_caL.mod'
p8803
(dp8804
S'ERROR_FLAGS'
p8805
(lp8806
I5
assS'102288_ICaL.mod'
p8807
(dp8808
S'G_VALS'
p8809
(dp8810
S'gcalbar_cal'
p8811
F0.003
ssS'GATES'
p8812
(dp8813
S'm'
p8814
I2
ssS'SUFFIX'
p8815
S'cal'
p8816
sS'GMAX_NAME'
p8817
g8811
sS'STATES'
p8818
(lp8819
g8814
asS'I_VALS'
p8820
(dp8821
F6.3
g16
(g20
S'\xcc\x15\xfd\xa1\x8f\xbcO?'
p8822
tp8823
Rp8824
sI37
g16
(g20
S'/"\xb8\x0f\xbd\xacM?'
p8825
tp8826
Rp8827
ssS'ERROR_FLAGS'
p8828
(lp8829
ssS'84589_cal.mod'
p8830
(dp8831
S'ERROR_FLAGS'
p8832
(lp8833
I1
assS'136095_IL3.mod'
p8834
(dp8835
S'ERROR_FLAGS'
p8836
(lp8837
I5
assS'154732_carF.mod'
p8838
(dp8839
S'G_VALS'
p8840
(dp8841
S'gcabar_carF'
p8842
F0.351
ssS'GATES'
p8843
(dp8844
S'h'
p8845
I1
sS'm'
p8846
I3
ssS'SUFFIX'
p8847
S'carF'
p8848
sS'GMAX_NAME'
p8849
g8842
sS'STATES'
p8850
(lp8851
g8846
ag8845
asS'I_VALS'
p8852
(dp8853
F6.3
g16
(g20
S'e\xb7\x8d\x93Iu\xd6?'
p8854
tp8855
Rp8856
sI37
g16
(g20
S'e\xb7\x8d\x93Iu\xd6?'
p8857
tp8858
Rp8859
ssS'ERROR_FLAGS'
p8860
(lp8861
ssS'144490_somacar_v2.mod'
p8862
(dp8863
S'G_VALS'
p8864
(dp8865
S'gcabar_somacar'
p8866
F1.0
ssS'GATES'
p8867
(dp8868
S'h'
p8869
I1
sS'm'
p8870
I3
ssS'SUFFIX'
p8871
S'somacar'
p8872
sS'GMAX_NAME'
p8873
g8866
sS'STATES'
p8874
(lp8875
g8870
ag8869
asS'I_VALS'
p8876
(dp8877
F6.3
g16
(g20
S'OA=\xbc\x8f\xfd\xef?'
p8878
tp8879
Rp8880
sI37
g16
(g20
S'OA=\xbc\x8f\xfd\xef?'
p8881
tp8882
Rp8883
ssS'ERROR_FLAGS'
p8884
(lp8885
ssS'147757_cat.mod'
p8886
(dp8887
S'G_VALS'
p8888
(dp8889
S'gcatbar_cat'
p8890
F1.0
ssS'GATES'
p8891
(dp8892
S'h'
p8893
I2
sS'm'
p8894
I2
ssS'SUFFIX'
p8895
S'cat'
p8896
sS'GMAX_NAME'
p8897
g8890
sS'STATES'
p8898
(lp8899
g8894
ag8893
asS'I_VALS'
p8900
(dp8901
F6.3
g16
(g20
S'\x15\x0b\x1c\xac\x8fs\xe8?'
p8902
tp8903
Rp8904
sI37
g16
(g20
S'jY\x13$b\xdc\xe6?'
p8905
tp8906
Rp8907
ssS'ERROR_FLAGS'
p8908
(lp8909
ssS'82784_HVA.mod'
p8910
(dp8911
S'G_VALS'
p8912
(dp8913
S'gHVAbar_HVA'
p8914
F0.00034
ssS'GATES'
p8915
(dp8916
S'z'
p8917
I1
sS'u'
p8918
I2
ssS'SUFFIX'
p8919
S'HVA'
p8920
sS'GMAX_NAME'
p8921
g8914
sS'STATES'
p8922
(lp8923
g8918
ag8917
asS'I_VALS'
p8924
(dp8925
F6.3
g16
(g20
S'\xe2I\xbd\xf6\xf9\xd86?'
p8926
tp8927
Rp8928
sI37
g16
(g20
S'\x1b9|\xe9\x16L5?'
p8929
tp8930
Rp8931
ssS'ERROR_FLAGS'
p8932
(lp8933
ssS'144450_cal.mod'
p8934
(dp8935
S'ERROR_FLAGS'
p8936
(lp8937
I8
assS'144526_CaH.mod'
p8938
(dp8939
S'G_VALS'
p8940
(dp8941
S'gbar_ca'
p8942
F0.1
ssS'GATES'
p8943
(dp8944
S'h'
p8945
I1
sS'm'
p8946
I2
ssS'SUFFIX'
p8947
S'ca'
p8948
sS'GMAX_NAME'
p8949
g8942
sS'STATES'
p8950
(lp8951
g8946
ag8945
asS'I_VALS'
p8952
(dp8953
F6.3
g16
(g20
S'rc\xe3\x88\xb5\xf8\xe4>'
p8954
tp8955
Rp8956
sI37
g16
(g20
S'\xafA\xe3\x88\xb5\xf8\xe4>'
p8957
tp8958
Rp8959
ssS'ERROR_FLAGS'
p8960
(lp8961
ssS'116862_IL3.mod'
p8962
(dp8963
S'ERROR_FLAGS'
p8964
(lp8965
I5
assS'19591_CaHVA_chan.mod'
p8966
(dp8967
S'G_VALS'
p8968
(dp8969
S'gbar_cahva_chan'
p8970
F0.0029089
ssS'GATES'
p8971
(dp8972
S'h'
p8973
I1
sS'm'
p8974
I2
ssS'SUFFIX'
p8975
S'cahva_chan'
p8976
sS'GMAX_NAME'
p8977
g8970
sS'STATES'
p8978
(lp8979
g8974
ag8973
asS'I_VALS'
p8980
(dp8981
F6.3
g16
(g20
S'\x19\xab\xee\xedf\xd4g?'
p8982
tp8983
Rp8984
sI37
g16
(g20
S'\x19\xab\xee\xedf\xd4g?'
p8985
tp8986
Rp8987
ssS'ERROR_FLAGS'
p8988
(lp8989
ssS'184348_Ca_LVA.mod'
p8990
(dp8991
S'G_VALS'
p8992
(dp8993
S'gbar_Ca_LVA'
p8994
F1e-05
ssS'GATES'
p8995
(dp8996
S'h'
p8997
I1
sS'm'
p8998
I2
ssS'SUFFIX'
p8999
S'Ca_LVA'
p9000
sS'GMAX_NAME'
p9001
g8994
sS'STATES'
p9002
(lp9003
g8998
ag8997
asS'I_VALS'
p9004
(dp9005
F6.3
g16
(g20
S'%\x90\xe3\x88\xb5\xf8\xe4>'
p9006
tp9007
Rp9008
sI37
g16
(g20
S'\xc6\xb6\xe0\x88\xb5\xf8\xe4>'
p9009
tp9010
Rp9011
ssS'ERROR_FLAGS'
p9012
(lp9013
ssS'52034_cah.mod'
p9014
(dp9015
S'ERROR_FLAGS'
p9016
(lp9017
I4
assS'184303_Ca_HVA.mod'
p9018
(dp9019
S'G_VALS'
p9020
(dp9021
S'gbar_Ca_HVA'
p9022
F1e-05
ssS'GATES'
p9023
(dp9024
S'h'
p9025
I1
sS'm'
p9026
I2
ssS'SUFFIX'
p9027
S'Ca_HVA'
p9028
sS'GMAX_NAME'
p9029
g9022
sS'STATES'
p9030
(lp9031
g9026
ag9025
asS'I_VALS'
p9032
(dp9033
F6.3
g16
(g20
S'\x1dT\xe3\x88\xb5\xf8\xe4>'
p9034
tp9035
Rp9036
sI37
g16
(g20
S'\x1dT\xe3\x88\xb5\xf8\xe4>'
p9037
tp9038
Rp9039
ssS'ERROR_FLAGS'
p9040
(lp9041
ssS'112834_caq.mod'
p9042
(dp9043
S'ERROR_FLAGS'
p9044
(lp9045
I5
assS'112685_Golgi_Ca_HVA.mod'
p9046
(dp9047
S'G_VALS'
p9048
(dp9049
S'gcabar_Golgi_Ca_HVA'
p9050
F0.00046
ssS'GATES'
p9051
(dp9052
S's'
p9053
I2
sS'u'
p9054
I1
ssS'SUFFIX'
p9055
S'Golgi_Ca_HVA'
p9056
sS'GMAX_NAME'
p9057
g9050
sS'STATES'
p9058
(lp9059
g9053
ag9054
asS'I_VALS'
p9060
(dp9061
F6.3
g16
(g20
S'sW\xd8\xee\x84%>?'
p9062
tp9063
Rp9064
sI37
g16
(g20
S'W\xb1R\xb1\x84%>?'
p9065
tp9066
Rp9067
ssS'ERROR_FLAGS'
p9068
(lp9069
ssS'149739_LCa.mod'
p9070
(dp9071
S'G_VALS'
p9072
(dp9073
S'gcabar_ICa'
p9074
F0.12
ssS'GATES'
p9075
(dp9076
S's'
p9077
I1
sS'r'
p9078
I1
ssS'SUFFIX'
p9079
S'ICa'
p9080
sS'GMAX_NAME'
p9081
g9074
sS'STATES'
p9082
(lp9083
g9078
ag9077
asS'I_VALS'
p9084
(dp9085
F6.3
g16
(g20
S'\xb7\x03 ],\xb8\xbe?'
p9086
tp9087
Rp9088
sI37
g16
(g20
S'\xb7\x03 ],\xb8\xbe?'
p9089
tp9090
Rp9091
ssS'ERROR_FLAGS'
p9092
(lp9093
ssS'184325_Ca_LVA.mod'
p9094
(dp9095
S'G_VALS'
p9096
(dp9097
S'gbar_Ca_LVA'
p9098
F1e-05
ssS'GATES'
p9099
(dp9100
S'h'
p9101
I1
sS'm'
p9102
I2
ssS'SUFFIX'
p9103
S'Ca_LVA'
p9104
sS'GMAX_NAME'
p9105
g9098
sS'STATES'
p9106
(lp9107
g9102
ag9101
asS'I_VALS'
p9108
(dp9109
F6.3
g16
(g20
S'%\x90\xe3\x88\xb5\xf8\xe4>'
p9110
tp9111
Rp9112
sI37
g16
(g20
S'\xc6\xb6\xe0\x88\xb5\xf8\xe4>'
p9113
tp9114
Rp9115
ssS'ERROR_FLAGS'
p9116
(lp9117
ssS'48332_cap.mod'
p9118
(dp9119
S'ERROR_FLAGS'
p9120
(lp9121
I5
assS'51781_LcaMig.mod'
p9122
(dp9123
S'G_VALS'
p9124
(dp9125
S'glcabar_lca'
p9126
F1.0
ssS'GATES'
p9127
(dp9128
S'm'
p9129
I2
ssS'SUFFIX'
p9130
S'lca'
p9131
sS'GMAX_NAME'
p9132
g9126
sS'STATES'
p9133
(lp9134
g9129
asS'I_VALS'
p9135
(dp9136
F6.3
g16
(g20
S'\xd3\xdc\xe9rm\xa9\xd4?'
p9137
tp9138
Rp9139
sI37
g16
(g20
S'vY\x1b\x07\xcbQ\xd3?'
p9140
tp9141
Rp9142
ssS'ERROR_FLAGS'
p9143
(lp9144
ssS'20212_cal.mod'
p9145
(dp9146
S'G_VALS'
p9147
(dp9148
S'gcalbar_cal'
p9149
F1.0
ssS'GATES'
p9150
(dp9151
S'm'
p9152
I1
ssS'SUFFIX'
p9153
S'cal'
p9154
sS'GMAX_NAME'
p9155
g9149
sS'STATES'
p9156
(lp9157
g9152
asS'I_VALS'
p9158
(dp9159
F6.3
g16
(g20
S'0\x02q\xf4\x814\xd1?'
p9160
tp9161
Rp9162
sI37
g16
(g20
S'$\\>\xa2\xa8\x05\xd0?'
p9163
tp9164
Rp9165
ssS'ERROR_FLAGS'
p9166
(lp9167
ssS'140462_ICat2.mod'
p9168
(dp9169
S'G_VALS'
p9170
(dp9171
S'gbar_iCat2'
p9172
F1.0
ssS'GATES'
p9173
(dp9174
S'm'
p9175
I2
ssS'SUFFIX'
p9176
S'iCat2'
p9177
sS'GMAX_NAME'
p9178
g9172
sS'STATES'
p9179
(lp9180
g9175
asS'I_VALS'
p9181
(dp9182
F6.3
g16
(g20
S'v\xa7]l\x8f(\xf0?'
p9183
tp9184
Rp9185
sI37
g16
(g20
S'v\xa7]l\x8f(\xf0?'
p9186
tp9187
Rp9188
ssS'ERROR_FLAGS'
p9189
(lp9190
ssS'181967_cal.mod'
p9191
(dp9192
S'G_VALS'
p9193
(dp9194
S'gcalbar_cal'
p9195
F1.0
ssS'GATES'
p9196
(dp9197
S'm'
p9198
I1
ssS'SUFFIX'
p9199
S'cal'
p9200
sS'GMAX_NAME'
p9201
g9195
sS'STATES'
p9202
(lp9203
g9198
asS'I_VALS'
p9204
(dp9205
F6.3
g16
(g20
S'0\x02q\xf4\x814\xd1?'
p9206
tp9207
Rp9208
sI37
g16
(g20
S'$\\>\xa2\xa8\x05\xd0?'
p9209
tp9210
Rp9211
ssS'ERROR_FLAGS'
p9212
(lp9213
ssS'3343_IT.mod'
p9214
(dp9215
S'G_VALS'
p9216
(dp9217
S'gcabar_it'
p9218
F0.002
ssS'GATES'
p9219
(dp9220
S'h'
p9221
I1
ssS'SUFFIX'
p9222
S'it'
p9223
sS'GMAX_NAME'
p9224
g9218
sS'STATES'
p9225
(lp9226
g9221
asS'I_VALS'
p9227
(dp9228
F6.3
g16
(g20
S'pH,`A\xdf#?'
p9229
tp9230
Rp9231
sI37
g16
(g20
S'1}Iv\x07\xec#?'
p9232
tp9233
Rp9234
ssS'ERROR_FLAGS'
p9235
(lp9236
ssS'180789_captain.mod'
p9237
(dp9238
S'ERROR_FLAGS'
p9239
(lp9240
I5
assS'184178_Ca_HVA.mod'
p9241
(dp9242
S'G_VALS'
p9243
(dp9244
S'gbar_Ca_HVA'
p9245
F1e-05
ssS'GATES'
p9246
(dp9247
S'h'
p9248
I1
sS'm'
p9249
I2
ssS'SUFFIX'
p9250
S'Ca_HVA'
p9251
sS'GMAX_NAME'
p9252
g9245
sS'STATES'
p9253
(lp9254
g9249
ag9248
asS'I_VALS'
p9255
(dp9256
F6.3
g16
(g20
S'\x1dT\xe3\x88\xb5\xf8\xe4>'
p9257
tp9258
Rp9259
sI37
g16
(g20
S'\x1dT\xe3\x88\xb5\xf8\xe4>'
p9260
tp9261
Rp9262
ssS'ERROR_FLAGS'
p9263
(lp9264
ssS'17664_CaP2.mod'
p9265
(dp9266
S'ERROR_FLAGS'
p9267
(lp9268
I4
assS'97863_is.mod'
p9269
(dp9270
S'G_VALS'
p9271
(dp9272
S'gsbar_Is'
p9273
F9e-05
ssS'GATES'
p9274
(dp9275
S'm'
p9276
I1
sS'n'
p9277
I1
ssS'SUFFIX'
p9278
S'Is'
p9279
sS'GMAX_NAME'
p9280
g9273
sS'STATES'
p9281
(lp9282
g9276
ag9277
asS'I_VALS'
p9283
(dp9284
F6.3
g16
(g20
S'l\xe5\xc9*\xcc\x97\x17?'
p9285
tp9286
Rp9287
sI37
g16
(g20
S'\xd1\xeek%\xcc\x97\x17?'
p9288
tp9289
Rp9290
ssS'ERROR_FLAGS'
p9291
(lp9292
ss.